
Lab15.elf:     file format elf32-littlearm


Disassembly of section .isr_vector:

08000000 <__isr_vectors>:
 8000000:	20010000 	andcs	r0, r1, r0
 8000004:	080002c5 	stmdaeq	r0, {r0, r2, r6, r7, r9}
 8000008:	080002cb 	stmdaeq	r0, {r0, r1, r3, r6, r7, r9}
 800000c:	080002cf 	stmdaeq	r0, {r0, r1, r2, r3, r6, r7, r9}
 8000010:	08000341 	stmdaeq	r0, {r0, r6, r8, r9}
 8000014:	08000345 	stmdaeq	r0, {r0, r2, r6, r8, r9}
 8000018:	0800038d 	stmdaeq	r0, {r0, r2, r3, r7, r8, r9}
	...
 800002c:	080003d5 	stmdaeq	r0, {r0, r2, r4, r6, r7, r8, r9}
 8000030:	080003d9 	stmdaeq	r0, {r0, r3, r4, r6, r7, r8, r9}
 8000034:	00000000 	andeq	r0, r0, r0
 8000038:	080003dd 	stmdaeq	r0, {r0, r2, r3, r4, r6, r7, r8, r9}
 800003c:	080003e1 	stmdaeq	r0, {r0, r5, r6, r7, r8, r9}
 8000040:	080003f1 	stmdaeq	r0, {r0, r4, r5, r6, r7, r8, r9}
 8000044:	080003f1 	stmdaeq	r0, {r0, r4, r5, r6, r7, r8, r9}
 8000048:	080003f1 	stmdaeq	r0, {r0, r4, r5, r6, r7, r8, r9}
 800004c:	080003f1 	stmdaeq	r0, {r0, r4, r5, r6, r7, r8, r9}
 8000050:	080003f1 	stmdaeq	r0, {r0, r4, r5, r6, r7, r8, r9}
 8000054:	080003f1 	stmdaeq	r0, {r0, r4, r5, r6, r7, r8, r9}
 8000058:	08001145 	stmdaeq	r0, {r0, r2, r6, r8, ip}
 800005c:	08001165 	stmdaeq	r0, {r0, r2, r5, r6, r8, ip}
 8000060:	08001185 	stmdaeq	r0, {r0, r2, r7, r8, ip}
 8000064:	080011a5 	stmdaeq	r0, {r0, r2, r5, r7, r8, ip}
 8000068:	080011c5 	stmdaeq	r0, {r0, r2, r6, r7, r8, ip}
 800006c:	080003f1 	stmdaeq	r0, {r0, r4, r5, r6, r7, r8, r9}
 8000070:	080003f1 	stmdaeq	r0, {r0, r4, r5, r6, r7, r8, r9}
 8000074:	080003f1 	stmdaeq	r0, {r0, r4, r5, r6, r7, r8, r9}
 8000078:	080003f1 	stmdaeq	r0, {r0, r4, r5, r6, r7, r8, r9}
 800007c:	080003f1 	stmdaeq	r0, {r0, r4, r5, r6, r7, r8, r9}
 8000080:	080003f1 	stmdaeq	r0, {r0, r4, r5, r6, r7, r8, r9}
 8000084:	080003f1 	stmdaeq	r0, {r0, r4, r5, r6, r7, r8, r9}
 8000088:	080003f1 	stmdaeq	r0, {r0, r4, r5, r6, r7, r8, r9}
	...
 800009c:	080011e5 	stmdaeq	r0, {r0, r2, r5, r6, r7, r8, ip}
 80000a0:	080003f1 	stmdaeq	r0, {r0, r4, r5, r6, r7, r8, r9}
 80000a4:	080003f1 	stmdaeq	r0, {r0, r4, r5, r6, r7, r8, r9}
 80000a8:	080003f1 	stmdaeq	r0, {r0, r4, r5, r6, r7, r8, r9}
 80000ac:	080003f1 	stmdaeq	r0, {r0, r4, r5, r6, r7, r8, r9}
 80000b0:	080003f1 	stmdaeq	r0, {r0, r4, r5, r6, r7, r8, r9}
 80000b4:	080003f1 	stmdaeq	r0, {r0, r4, r5, r6, r7, r8, r9}
 80000b8:	080003f1 	stmdaeq	r0, {r0, r4, r5, r6, r7, r8, r9}
 80000bc:	080003f1 	stmdaeq	r0, {r0, r4, r5, r6, r7, r8, r9}
 80000c0:	080003f1 	stmdaeq	r0, {r0, r4, r5, r6, r7, r8, r9}
 80000c4:	080003f1 	stmdaeq	r0, {r0, r4, r5, r6, r7, r8, r9}
 80000c8:	080003f1 	stmdaeq	r0, {r0, r4, r5, r6, r7, r8, r9}
 80000cc:	080003f1 	stmdaeq	r0, {r0, r4, r5, r6, r7, r8, r9}
 80000d0:	080003f1 	stmdaeq	r0, {r0, r4, r5, r6, r7, r8, r9}
 80000d4:	080003f1 	stmdaeq	r0, {r0, r4, r5, r6, r7, r8, r9}
 80000d8:	080003f1 	stmdaeq	r0, {r0, r4, r5, r6, r7, r8, r9}
 80000dc:	00000000 	andeq	r0, r0, r0
 80000e0:	08001281 	stmdaeq	r0, {r0, r7, r9, ip}
 80000e4:	080003f1 	stmdaeq	r0, {r0, r4, r5, r6, r7, r8, r9}
 80000e8:	080003f1 	stmdaeq	r0, {r0, r4, r5, r6, r7, r8, r9}
	...
 80000fc:	080003f1 	stmdaeq	r0, {r0, r4, r5, r6, r7, r8, r9}
 8000100:	00000000 	andeq	r0, r0, r0
 8000104:	080003f1 	stmdaeq	r0, {r0, r4, r5, r6, r7, r8, r9}
 8000108:	080003f1 	stmdaeq	r0, {r0, r4, r5, r6, r7, r8, r9}
 800010c:	080003f1 	stmdaeq	r0, {r0, r4, r5, r6, r7, r8, r9}
	...
 8000120:	080003f1 	stmdaeq	r0, {r0, r4, r5, r6, r7, r8, r9}
 8000124:	080003f1 	stmdaeq	r0, {r0, r4, r5, r6, r7, r8, r9}
 8000128:	080003f1 	stmdaeq	r0, {r0, r4, r5, r6, r7, r8, r9}
 800012c:	080003f1 	stmdaeq	r0, {r0, r4, r5, r6, r7, r8, r9}
 8000130:	080003f1 	stmdaeq	r0, {r0, r4, r5, r6, r7, r8, r9}
	...
 800014c:	080003f1 	stmdaeq	r0, {r0, r4, r5, r6, r7, r8, r9}
 8000150:	080003f1 	stmdaeq	r0, {r0, r4, r5, r6, r7, r8, r9}
 8000154:	080003f1 	stmdaeq	r0, {r0, r4, r5, r6, r7, r8, r9}
 8000158:	080003f1 	stmdaeq	r0, {r0, r4, r5, r6, r7, r8, r9}
 800015c:	080003f1 	stmdaeq	r0, {r0, r4, r5, r6, r7, r8, r9}
 8000160:	080003f1 	stmdaeq	r0, {r0, r4, r5, r6, r7, r8, r9}
 8000164:	080003f1 	stmdaeq	r0, {r0, r4, r5, r6, r7, r8, r9}
	...
 8000184:	080003f1 	stmdaeq	r0, {r0, r4, r5, r6, r7, r8, r9}
	...
 8000190:	080003f1 	stmdaeq	r0, {r0, r4, r5, r6, r7, r8, r9}

08000194 <_start>:
 8000194:	b500      	push	{lr}
 8000196:	b083      	sub	sp, #12
 8000198:	f000 ff1a 	bl	8000fd0 <__initialize_hardware_early>
 800019c:	4b38      	ldr	r3, [pc, #224]	; (8000280 <_start+0xec>)
 800019e:	4a39      	ldr	r2, [pc, #228]	; (8000284 <_start+0xf0>)
 80001a0:	6013      	str	r3, [r2, #0]
 80001a2:	4a39      	ldr	r2, [pc, #228]	; (8000288 <_start+0xf4>)
 80001a4:	6013      	str	r3, [r2, #0]
 80001a6:	4939      	ldr	r1, [pc, #228]	; (800028c <_start+0xf8>)
 80001a8:	e006      	b.n	80001b8 <_start+0x24>
 80001aa:	f852 1b04 	ldr.w	r1, [r2], #4
 80001ae:	f843 1b04 	str.w	r1, [r3], #4
 80001b2:	4298      	cmp	r0, r3
 80001b4:	d8f9      	bhi.n	80001aa <_start+0x16>
 80001b6:	4661      	mov	r1, ip
 80001b8:	4b35      	ldr	r3, [pc, #212]	; (8000290 <_start+0xfc>)
 80001ba:	4299      	cmp	r1, r3
 80001bc:	d205      	bcs.n	80001ca <_start+0x36>
 80001be:	680a      	ldr	r2, [r1, #0]
 80001c0:	684b      	ldr	r3, [r1, #4]
 80001c2:	f101 0c0c 	add.w	ip, r1, #12
 80001c6:	6888      	ldr	r0, [r1, #8]
 80001c8:	e7f3      	b.n	80001b2 <_start+0x1e>
 80001ca:	4b2e      	ldr	r3, [pc, #184]	; (8000284 <_start+0xf0>)
 80001cc:	681a      	ldr	r2, [r3, #0]
 80001ce:	4b31      	ldr	r3, [pc, #196]	; (8000294 <_start+0x100>)
 80001d0:	429a      	cmp	r2, r3
 80001d2:	d000      	beq.n	80001d6 <_start+0x42>
 80001d4:	e7fe      	b.n	80001d4 <_start+0x40>
 80001d6:	4b2c      	ldr	r3, [pc, #176]	; (8000288 <_start+0xf4>)
 80001d8:	681a      	ldr	r2, [r3, #0]
 80001da:	4b2f      	ldr	r3, [pc, #188]	; (8000298 <_start+0x104>)
 80001dc:	429a      	cmp	r2, r3
 80001de:	d1f9      	bne.n	80001d4 <_start+0x40>
 80001e0:	4b27      	ldr	r3, [pc, #156]	; (8000280 <_start+0xec>)
 80001e2:	4a2e      	ldr	r2, [pc, #184]	; (800029c <_start+0x108>)
 80001e4:	6013      	str	r3, [r2, #0]
 80001e6:	4a2e      	ldr	r2, [pc, #184]	; (80002a0 <_start+0x10c>)
 80001e8:	6013      	str	r3, [r2, #0]
 80001ea:	4a2e      	ldr	r2, [pc, #184]	; (80002a4 <_start+0x110>)
 80001ec:	e000      	b.n	80001f0 <_start+0x5c>
 80001ee:	4602      	mov	r2, r0
 80001f0:	4b2d      	ldr	r3, [pc, #180]	; (80002a8 <_start+0x114>)
 80001f2:	429a      	cmp	r2, r3
 80001f4:	d209      	bcs.n	800020a <_start+0x76>
 80001f6:	4610      	mov	r0, r2
 80001f8:	f850 3b08 	ldr.w	r3, [r0], #8
 80001fc:	6851      	ldr	r1, [r2, #4]
 80001fe:	4299      	cmp	r1, r3
 8000200:	d9f5      	bls.n	80001ee <_start+0x5a>
 8000202:	2200      	movs	r2, #0
 8000204:	f843 2b04 	str.w	r2, [r3], #4
 8000208:	e7f9      	b.n	80001fe <_start+0x6a>
 800020a:	4b24      	ldr	r3, [pc, #144]	; (800029c <_start+0x108>)
 800020c:	681b      	ldr	r3, [r3, #0]
 800020e:	b913      	cbnz	r3, 8000216 <_start+0x82>
 8000210:	4b23      	ldr	r3, [pc, #140]	; (80002a0 <_start+0x10c>)
 8000212:	681b      	ldr	r3, [r3, #0]
 8000214:	b103      	cbz	r3, 8000218 <_start+0x84>
 8000216:	e7fe      	b.n	8000216 <_start+0x82>
 8000218:	f001 fac6 	bl	80017a8 <__initialize_hardware>
 800021c:	4669      	mov	r1, sp
 800021e:	a801      	add	r0, sp, #4
 8000220:	f000 fdf4 	bl	8000e0c <__initialize_args>
 8000224:	4c21      	ldr	r4, [pc, #132]	; (80002ac <_start+0x118>)
 8000226:	4b22      	ldr	r3, [pc, #136]	; (80002b0 <_start+0x11c>)
 8000228:	1ae4      	subs	r4, r4, r3
 800022a:	10a4      	asrs	r4, r4, #2
 800022c:	2500      	movs	r5, #0
 800022e:	e004      	b.n	800023a <_start+0xa6>
 8000230:	4b1f      	ldr	r3, [pc, #124]	; (80002b0 <_start+0x11c>)
 8000232:	f853 3025 	ldr.w	r3, [r3, r5, lsl #2]
 8000236:	4798      	blx	r3
 8000238:	3501      	adds	r5, #1
 800023a:	42ac      	cmp	r4, r5
 800023c:	dcf8      	bgt.n	8000230 <_start+0x9c>
 800023e:	4c1d      	ldr	r4, [pc, #116]	; (80002b4 <_start+0x120>)
 8000240:	4b1d      	ldr	r3, [pc, #116]	; (80002b8 <_start+0x124>)
 8000242:	1ae4      	subs	r4, r4, r3
 8000244:	10a4      	asrs	r4, r4, #2
 8000246:	2500      	movs	r5, #0
 8000248:	e004      	b.n	8000254 <_start+0xc0>
 800024a:	4b1b      	ldr	r3, [pc, #108]	; (80002b8 <_start+0x124>)
 800024c:	f853 3025 	ldr.w	r3, [r3, r5, lsl #2]
 8000250:	4798      	blx	r3
 8000252:	3501      	adds	r5, #1
 8000254:	42ac      	cmp	r4, r5
 8000256:	dcf8      	bgt.n	800024a <_start+0xb6>
 8000258:	9900      	ldr	r1, [sp, #0]
 800025a:	9801      	ldr	r0, [sp, #4]
 800025c:	f001 fb56 	bl	800190c <main>
 8000260:	4605      	mov	r5, r0
 8000262:	4c16      	ldr	r4, [pc, #88]	; (80002bc <_start+0x128>)
 8000264:	4b16      	ldr	r3, [pc, #88]	; (80002c0 <_start+0x12c>)
 8000266:	1ae4      	subs	r4, r4, r3
 8000268:	10a4      	asrs	r4, r4, #2
 800026a:	e004      	b.n	8000276 <_start+0xe2>
 800026c:	3c01      	subs	r4, #1
 800026e:	4b14      	ldr	r3, [pc, #80]	; (80002c0 <_start+0x12c>)
 8000270:	f853 3024 	ldr.w	r3, [r3, r4, lsl #2]
 8000274:	4798      	blx	r3
 8000276:	2c00      	cmp	r4, #0
 8000278:	dcf8      	bgt.n	800026c <_start+0xd8>
 800027a:	4628      	mov	r0, r5
 800027c:	f000 fda2 	bl	8000dc4 <_exit>
 8000280:	cadebaba 	bgt	77aed70 <__Main_Stack_Size+0x77ae970>
 8000284:	20000000 	andcs	r0, r0, r0
 8000288:	20000068 	andcs	r0, r0, r8, rrx
 800028c:	080003f4 	stmdaeq	r0, {r2, r4, r5, r6, r7, r8, r9}
 8000290:	0800040c 	stmdaeq	r0, {r2, r3, sl}
 8000294:	12345678 	eorsne	r5, r4, #120, 12	; 0x7800000
 8000298:	98765432 	ldmdals	r6!, {r1, r4, r5, sl, ip, lr}^
 800029c:	2000006c 	andcs	r0, r0, ip, rrx
 80002a0:	20000150 	andcs	r0, r0, r0, asr r1
 80002a4:	0800040c 	stmdaeq	r0, {r2, r3, sl}
 80002a8:	0800041c 	stmdaeq	r0, {r2, r3, r4, sl}
 80002ac:	0800041c 	stmdaeq	r0, {r2, r3, r4, sl}
 80002b0:	0800041c 	stmdaeq	r0, {r2, r3, r4, sl}
 80002b4:	0800041c 	stmdaeq	r0, {r2, r3, r4, sl}
 80002b8:	0800041c 	stmdaeq	r0, {r2, r3, r4, sl}
 80002bc:	0800041c 	stmdaeq	r0, {r2, r3, r4, sl}
 80002c0:	0800041c 	stmdaeq	r0, {r2, r3, r4, sl}

080002c4 <Reset_Handler>:
 80002c4:	b508      	push	{r3, lr}
 80002c6:	f7ff ff65 	bl	8000194 <_start>

080002ca <NMI_Handler>:
 80002ca:	be00      	bkpt	0x0000
 80002cc:	e7fe      	b.n	80002cc <NMI_Handler+0x2>

080002ce <HardFault_Handler>:
 80002ce:	f01e 0f04 	tst.w	lr, #4
 80002d2:	bf0c      	ite	eq
 80002d4:	f3ef 8008 	mrseq	r0, MSP
 80002d8:	f3ef 8009 	mrsne	r0, PSP
 80002dc:	4671      	mov	r1, lr
 80002de:	4a41      	ldr	r2, [pc, #260]	; (80003e4 <SysTick_Handler+0x4>)
 80002e0:	4710      	bx	r2

080002e2 <HardFault_Handler_C>:
 80002e2:	e92d 41f0 	stmdb	sp!, {r4, r5, r6, r7, r8, lr}
 80002e6:	b082      	sub	sp, #8
 80002e8:	4604      	mov	r4, r0
 80002ea:	460d      	mov	r5, r1
 80002ec:	4b12      	ldr	r3, [pc, #72]	; (8000338 <HardFault_Handler_C+0x56>)
 80002ee:	6b5f      	ldr	r7, [r3, #52]	; 0x34
 80002f0:	f8d3 8038 	ldr.w	r8, [r3, #56]	; 0x38
 80002f4:	6a9e      	ldr	r6, [r3, #40]	; 0x28
 80002f6:	6b1b      	ldr	r3, [r3, #48]	; 0x30
 80002f8:	f013 0f02 	tst.w	r3, #2
 80002fc:	d003      	beq.n	8000306 <HardFault_Handler_C+0x24>
 80002fe:	4b0e      	ldr	r3, [pc, #56]	; (8000338 <HardFault_Handler_C+0x56>)
 8000300:	6adb      	ldr	r3, [r3, #44]	; 0x2c
 8000302:	2b00      	cmp	r3, #0
 8000304:	db0b      	blt.n	800031e <HardFault_Handler_C+0x3c>
 8000306:	480d      	ldr	r0, [pc, #52]	; (800033c <HardFault_Handler_C+0x5a>)
 8000308:	f000 fdbe 	bl	8000e88 <trace_printf>
 800030c:	9500      	str	r5, [sp, #0]
 800030e:	4643      	mov	r3, r8
 8000310:	463a      	mov	r2, r7
 8000312:	4631      	mov	r1, r6
 8000314:	4620      	mov	r0, r4
 8000316:	f000 fdd1 	bl	8000ebc <dumpExceptionStack>
 800031a:	be00      	bkpt	0x0000
 800031c:	e7fe      	b.n	800031c <HardFault_Handler_C+0x3a>
 800031e:	f64b 61ab 	movw	r1, #48811	; 0xbeab
 8000322:	f000 fe45 	bl	8000fb0 <isSemihosting>
 8000326:	2800      	cmp	r0, #0
 8000328:	d0ed      	beq.n	8000306 <HardFault_Handler_C+0x24>
 800032a:	4b03      	ldr	r3, [pc, #12]	; (8000338 <HardFault_Handler_C+0x56>)
 800032c:	f04f 4200 	mov.w	r2, #2147483648	; 0x80000000
 8000330:	62da      	str	r2, [r3, #44]	; 0x2c
 8000332:	b002      	add	sp, #8
 8000334:	e8bd 81f0 	ldmia.w	sp!, {r4, r5, r6, r7, r8, pc}
 8000338:	e000ed00 	and	lr, r0, r0, lsl #26
 800033c:	0800291c 	stmdaeq	r0, {r2, r3, r4, r8, fp, sp}

08000340 <MemManage_Handler>:
 8000340:	be00      	bkpt	0x0000
 8000342:	e7fe      	b.n	8000342 <MemManage_Handler+0x2>

08000344 <BusFault_Handler>:
 8000344:	f01e 0f04 	tst.w	lr, #4
 8000348:	bf0c      	ite	eq
 800034a:	f3ef 8008 	mrseq	r0, MSP
 800034e:	f3ef 8009 	mrsne	r0, PSP
 8000352:	4671      	mov	r1, lr
 8000354:	4a24      	ldr	r2, [pc, #144]	; (80003e8 <SysTick_Handler+0x8>)
 8000356:	4710      	bx	r2

08000358 <BusFault_Handler_C>:
 8000358:	e92d 41f0 	stmdb	sp!, {r4, r5, r6, r7, r8, lr}
 800035c:	b082      	sub	sp, #8
 800035e:	4604      	mov	r4, r0
 8000360:	460d      	mov	r5, r1
 8000362:	4b08      	ldr	r3, [pc, #32]	; (8000384 <BusFault_Handler_C+0x2c>)
 8000364:	6b5f      	ldr	r7, [r3, #52]	; 0x34
 8000366:	f8d3 8038 	ldr.w	r8, [r3, #56]	; 0x38
 800036a:	6a9e      	ldr	r6, [r3, #40]	; 0x28
 800036c:	4806      	ldr	r0, [pc, #24]	; (8000388 <BusFault_Handler_C+0x30>)
 800036e:	f000 fd8b 	bl	8000e88 <trace_printf>
 8000372:	9500      	str	r5, [sp, #0]
 8000374:	4643      	mov	r3, r8
 8000376:	463a      	mov	r2, r7
 8000378:	4631      	mov	r1, r6
 800037a:	4620      	mov	r0, r4
 800037c:	f000 fd9e 	bl	8000ebc <dumpExceptionStack>
 8000380:	be00      	bkpt	0x0000
 8000382:	e7fe      	b.n	8000382 <BusFault_Handler_C+0x2a>
 8000384:	e000ed00 	and	lr, r0, r0, lsl #26
 8000388:	0800292c 	stmdaeq	r0, {r2, r3, r5, r8, fp, sp}

0800038c <UsageFault_Handler>:
 800038c:	f01e 0f04 	tst.w	lr, #4
 8000390:	bf0c      	ite	eq
 8000392:	f3ef 8008 	mrseq	r0, MSP
 8000396:	f3ef 8009 	mrsne	r0, PSP
 800039a:	4671      	mov	r1, lr
 800039c:	4a13      	ldr	r2, [pc, #76]	; (80003ec <SysTick_Handler+0xc>)
 800039e:	4710      	bx	r2

080003a0 <UsageFault_Handler_C>:
 80003a0:	e92d 41f0 	stmdb	sp!, {r4, r5, r6, r7, r8, lr}
 80003a4:	b082      	sub	sp, #8
 80003a6:	4604      	mov	r4, r0
 80003a8:	460d      	mov	r5, r1
 80003aa:	4b08      	ldr	r3, [pc, #32]	; (80003cc <UsageFault_Handler_C+0x2c>)
 80003ac:	6b5f      	ldr	r7, [r3, #52]	; 0x34
 80003ae:	f8d3 8038 	ldr.w	r8, [r3, #56]	; 0x38
 80003b2:	6a9e      	ldr	r6, [r3, #40]	; 0x28
 80003b4:	4806      	ldr	r0, [pc, #24]	; (80003d0 <UsageFault_Handler_C+0x30>)
 80003b6:	f000 fd67 	bl	8000e88 <trace_printf>
 80003ba:	9500      	str	r5, [sp, #0]
 80003bc:	4643      	mov	r3, r8
 80003be:	463a      	mov	r2, r7
 80003c0:	4631      	mov	r1, r6
 80003c2:	4620      	mov	r0, r4
 80003c4:	f000 fd7a 	bl	8000ebc <dumpExceptionStack>
 80003c8:	be00      	bkpt	0x0000
 80003ca:	e7fe      	b.n	80003ca <UsageFault_Handler_C+0x2a>
 80003cc:	e000ed00 	and	lr, r0, r0, lsl #26
 80003d0:	08002938 	stmdaeq	r0, {r3, r4, r5, r8, fp, sp}

080003d4 <SVC_Handler>:
 80003d4:	be00      	bkpt	0x0000
 80003d6:	e7fe      	b.n	80003d6 <SVC_Handler+0x2>

080003d8 <DebugMon_Handler>:
 80003d8:	be00      	bkpt	0x0000
 80003da:	e7fe      	b.n	80003da <DebugMon_Handler+0x2>

080003dc <PendSV_Handler>:
 80003dc:	be00      	bkpt	0x0000
 80003de:	e7fe      	b.n	80003de <PendSV_Handler+0x2>

080003e0 <SysTick_Handler>:
 80003e0:	4770      	bx	lr
 80003e2:	02e30000 	rsceq	r0, r3, #0
 80003e6:	03590800 	cmpeq	r9, #0, 16
 80003ea:	03a10800 			; <UNDEFINED> instruction: 0x03a10800
 80003ee:	be000800 	cdplt	8, 0, cr0, cr0, cr0, {0}

080003f0 <ADC_IRQHandler>:
 80003f0:	be00      	bkpt	0x0000
 80003f2:	e7fe      	b.n	80003f2 <ADC_IRQHandler+0x2>

Disassembly of section .inits:

080003f4 <__data_regions_array_start>:
 80003f4:	08002a38 	stmdaeq	r0, {r3, r4, r5, r9, fp, sp}
 80003f8:	20000000 	andcs	r0, r0, r0
 80003fc:	2000006c 	andcs	r0, r0, ip, rrx
 8000400:	08002a38 	stmdaeq	r0, {r3, r4, r5, r9, fp, sp}
 8000404:	10000000 	andne	r0, r0, r0
 8000408:	10000000 	andne	r0, r0, r0

0800040c <__bss_regions_array_start>:
 800040c:	2000006c 	andcs	r0, r0, ip, rrx
 8000410:	20000154 	andcs	r0, r0, r4, asr r1
 8000414:	10000000 	andne	r0, r0, r0
 8000418:	10000000 	andne	r0, r0, r0

Disassembly of section .text:

08000420 <HAL_InitTick>:
 8000420:	4604b510 			; <UNDEFINED> instruction: 0x4604b510
 8000424:	781a4b0e 	ldmdavc	sl, {r1, r2, r3, r8, r9, fp, lr}
 8000428:	737af44f 	cmnvc	sl, #1325400064	; 0x4f000000
 800042c:	f3f2fbb3 			; <UNDEFINED> instruction: 0xf3f2fbb3
 8000430:	68104a0c 	ldmdavs	r0, {r2, r3, r9, fp, lr}
 8000434:	f0f3fbb0 			; <UNDEFINED> instruction: 0xf0f3fbb0
 8000438:	f8aef000 			; <UNDEFINED> instruction: 0xf8aef000
 800043c:	2c0fb968 	stccs	9, cr11, [pc], {104}	; 0x68
 8000440:	2001d901 	andcs	sp, r1, r1, lsl #18
 8000444:	2200e00a 	andcs	lr, r0, #10
 8000448:	4621      	mov	r1, r4
 800044a:	f04f 30ff 	mov.w	r0, #4294967295
 800044e:	f000 f87f 	bl	8000550 <HAL_NVIC_SetPriority>
 8000452:	601c4b05 	andsvs	r4, ip, r5, lsl #22
 8000456:	2000      	movs	r0, #0
 8000458:	e000      	b.n	800045c <HAL_InitTick+0x3c>
 800045a:	bd102001 	ldclt	0, cr2, [r0, #-4]
 800045e:	bf00      	nop
 8000460:	20000004 	andcs	r0, r0, r4
 8000464:	0014      	movs	r4, r2
 8000466:	00082000 	andeq	r2, r8, r0
 800046a:	2000      	movs	r0, #0

0800046c <HAL_Init>:
 800046c:	4b0bb508 	blmi	82ed894 <_sidata+0x2eae5c>
 8000470:	681a      	ldr	r2, [r3, #0]
 8000472:	7200f442 	andvc	pc, r0, #1107296256	; 0x42000000
 8000476:	601a      	str	r2, [r3, #0]
 8000478:	681a      	ldr	r2, [r3, #0]
 800047a:	f442 6280 	orr.w	r2, r2, #1024	; 0x400
 800047e:	601a      	str	r2, [r3, #0]
 8000480:	f442681a 	vst2.8	{d22-d23}, [r2 :64], sl
 8000484:	7280      	strb	r0, [r0, #10]
 8000486:	2003601a 	andcs	r6, r3, sl, lsl r0
 800048a:	f000 f843 	bl	8000514 <HAL_NVIC_SetPriorityGrouping>
 800048e:	200f      	movs	r0, #15
 8000490:	ffc6f7ff 			; <UNDEFINED> instruction: 0xffc6f7ff
 8000494:	f001 fb18 	bl	8001ac8 <HAL_MspInit>
 8000498:	2000      	movs	r0, #0
 800049a:	3c00bd08 	stccc	13, cr11, [r0], {8}
 800049e:	4002      	ands	r2, r0

080004a0 <HAL_GetTick>:
 80004a0:	68184b01 	ldmdavs	r8, {r0, r8, r9, fp, lr}
 80004a4:	4770      	bx	lr
 80004a6:	bf00      	nop
 80004a8:	0070      	lsls	r0, r6, #1
 80004aa:	2000      	movs	r0, #0

080004ac <__NVIC_SetPriority>:
 80004ac:	2800      	cmp	r0, #0
 80004ae:	db08      	blt.n	80004c2 <__NVIC_SetPriority+0x16>
 80004b0:	b2c90109 	sbclt	r0, r9, #1073741826	; 0x40000002
 80004b4:	f100 4060 	add.w	r0, r0, #3758096384	; 0xe0000000
 80004b8:	f500 4061 	add.w	r0, r0, #57600	; 0xe100
 80004bc:	f880 1300 	strb.w	r1, [r0, #768]	; 0x300
 80004c0:	f0004770 			; <UNDEFINED> instruction: 0xf0004770
 80004c4:	000f      	movs	r7, r1
 80004c6:	0109      	lsls	r1, r1, #4
 80004c8:	4b01b2c9 	blmi	806cff4 <_sidata+0x6a5bc>
 80004cc:	5419      	strb	r1, [r3, r0]
 80004ce:	4770      	bx	lr
 80004d0:	ed14 e000 	ldc	0, cr14, [r4, #-0]

080004d4 <NVIC_EncodePriority>:
 80004d4:	b500      	push	{lr}
 80004d6:	0007f000 	andeq	pc, r7, r0
 80004da:	f1c0 0c07 	rsb	ip, r0, #7
 80004de:	0f04f1bc 	svceq	0x0004f1bc
 80004e2:	bf28      	it	cs
 80004e4:	0c04f04f 	stceq	0, cr15, [r4], {79}	; 0x4f
 80004e8:	1d03      	adds	r3, r0, #4
 80004ea:	d90f2b06 	stmdble	pc, {r1, r2, r8, r9, fp, sp}	; <UNPREDICTABLE>
 80004ee:	1ec3      	subs	r3, r0, #3
 80004f0:	3efff04f 	cdpcc	0, 15, cr15, cr15, cr15, {2}
 80004f4:	f00cfa0e 			; <UNDEFINED> instruction: 0xf00cfa0e
 80004f8:	ea21 0100 	bic.w	r1, r1, r0
 80004fc:	fa0e4099 	blx	8390768 <_sidata+0x38dd30>
 8000500:	fe03 ea22 	vseleq.f32	s28, s6, s5
 8000504:	ea41020e 	b	9040d44 <_sidata+0x103e30c>
 8000508:	0002      	movs	r2, r0
 800050a:	fb04f85d 	blx	813e688 <_sidata+0x13bc50>
 800050e:	2300      	movs	r3, #0
 8000510:	0000e7ee 	andeq	lr, r0, lr, ror #15

08000514 <HAL_NVIC_SetPriorityGrouping>:
 8000514:	b510      	push	{r4, lr}
 8000516:	1ec34604 	cdpne	6, 12, cr4, cr3, cr4, {0}
 800051a:	2b04      	cmp	r3, #4
 800051c:	4a0ad80f 	bmi	82b6560 <_sidata+0x2b3b28>
 8000520:	68d3      	ldr	r3, [r2, #12]
 8000522:	63e0f423 	mvnvs	pc, #587202560	; 0x23000000
 8000526:	041b      	lsls	r3, r3, #16
 8000528:	02240c1b 	eoreq	r0, r4, #6912	; 0x1b00
 800052c:	f404 64e0 	and.w	r4, r4, #1792	; 0x700
 8000530:	f0434323 			; <UNDEFINED> instruction: 0xf0434323
 8000534:	63bf      	str	r7, [r7, #56]	; 0x38
 8000536:	3300f443 	movwcc	pc, #1091	; 0x443	; <UNPREDICTABLE>
 800053a:	60d3      	str	r3, [r2, #12]
 800053c:	2192bd10 	orrscs	fp, r2, r0, lsl sp
 8000540:	4802      	ldr	r0, [pc, #8]	; (800054c <HAL_NVIC_SetPriorityGrouping+0x38>)
 8000542:	f939f001 			; <UNDEFINED> instruction: 0xf939f001
 8000546:	e7ea      	b.n	800051e <HAL_NVIC_SetPriorityGrouping+0xa>	; unpredictable branch in IT block

 8000548:	e000ed00 	and	lr, r0, r0, lsl #26
 800054c:	279c      	movs	r7, #156	; 0x9c
 800054e:	b5700800 	ldrblt	r0, [r0, #-2048]!	; 0x800

08000550 <HAL_NVIC_SetPriority>:
 8000550:	b570      	push	{r4, r5, r6, lr}
 8000552:	460c4606 	strmi	r4, [ip], -r6, lsl #12
 8000556:	4615      	mov	r5, r2
 8000558:	d80e2a0f 	stmdale	lr, {r0, r1, r2, r3, r9, fp, sp}
 800055c:	2c0f      	cmp	r4, #15
 800055e:	4b0bd811 	blmi	82f65aa <_sidata+0x2f3b72>
 8000562:	68d8      	ldr	r0, [r3, #12]
 8000564:	4621462a 	strtmi	r4, [r1], -sl, lsr #12
 8000568:	f3c0 2002 	ubfx	r0, r0, #8, #3
 800056c:	ffb2f7ff 			; <UNDEFINED> instruction: 0xffb2f7ff
 8000570:	4601      	mov	r1, r0
 8000572:	f7ff4630 			; <UNDEFINED> instruction: 0xf7ff4630
 8000576:	ff9a bd70 			; <UNDEFINED> instruction: 0xff9abd70
 800057a:	21aa      	movcs	r1, #170	; 0xaa
 800057c:	f0014805 			; <UNDEFINED> instruction: 0xf0014805
 8000580:	f91b e7eb 	ldrsb.w	lr, [fp, <undefined>]
 8000584:	480321ab 	stmdami	r3, {r0, r1, r3, r5, r7, r8, sp}
 8000588:	f001 f916 	bl	80017b8 <assert_failed>
 800058c:	e7e8      	b.n	8000560 <HAL_NVIC_SetPriority+0x10>
 800058e:	bf00      	nop
 8000590:	e000ed00 	and	lr, r0, r0, lsl #26
 8000594:	279c      	movs	r7, #156	; 0x9c
 8000596:	38010800 	stmdacc	r1, {fp}

08000598 <HAL_SYSTICK_Config>:
 8000598:	3801      	subs	r0, #1
 800059a:	f1b0 7f80 	cmp.w	r0, #16777216	; 0x1000000
 800059e:	f04fd20b 			; <UNDEFINED> instruction: 0xf04fd20b
 80005a2:	23e0      	movs	r3, #224	; 0xe0
 80005a4:	4a056158 	bmi	8158b0c <_sidata+0x1560d4>
 80005a8:	21f0      	movs	r1, #240	; 0xf0
 80005aa:	1023f882 	eorne	pc, r3, r2, lsl #17
 80005ae:	2000      	movs	r0, #0
 80005b0:	6198      	str	r0, [r3, #24]
 80005b2:	611a2207 	tstvs	sl, r7, lsl #4
 80005b6:	4770      	bx	lr
 80005b8:	47702001 	ldrbmi	r2, [r0, -r1]!
 80005bc:	ed00 e000 	stc	0, cr14, [r0, #-0]

080005c0 <HAL_SYSTICK_CLKSourceConfig>:
 80005c0:	2804b508 	stmdacs	r4, {r3, r8, sl, ip, sp, pc}
 80005c4:	d007      	beq.n	80005d6 <HAL_SYSTICK_CLKSourceConfig+0x16>
 80005c6:	b968      	cbnz	r0, 80005e4 <HAL_SYSTICK_CLKSourceConfig+0x24>
 80005c8:	f04f 22e0 	mov.w	r2, #3758153728	; 0xe000e000
 80005cc:	6913      	ldr	r3, [r2, #16]
 80005ce:	f023 0304 	bic.w	r3, r3, #4
 80005d2:	6113      	str	r3, [r2, #16]
 80005d4:	bd08      	pop	{r3, pc}
 80005d6:	f04f 22e0 	mov.w	r2, #3758153728	; 0xe000e000
 80005da:	6913      	ldr	r3, [r2, #16]
 80005dc:	f043 0304 	orr.w	r3, r3, #4
 80005e0:	6113      	str	r3, [r2, #16]
 80005e2:	e7f7      	b.n	80005d4 <HAL_SYSTICK_CLKSourceConfig+0x14>
 80005e4:	f240 11c9 	movw	r1, #457	; 0x1c9
 80005e8:	4801      	ldr	r0, [pc, #4]	; (80005f0 <HAL_SYSTICK_CLKSourceConfig+0x30>)
 80005ea:	f001 f8e5 	bl	80017b8 <assert_failed>
 80005ee:	e7eb      	b.n	80005c8 <HAL_SYSTICK_CLKSourceConfig+0x8>
 80005f0:	0800279c 	stmdaeq	r0, {r2, r3, r4, r7, r8, r9, sl, sp}

080005f4 <HAL_RCC_OscConfig>:
 80005f4:	2800      	cmp	r0, #0
 80005f6:	f000 825b 	beq.w	8000ab0 <HAL_RCC_OscConfig+0x4bc>
 80005fa:	b570      	push	{r4, r5, r6, lr}
 80005fc:	b082      	sub	sp, #8
 80005fe:	4604      	mov	r4, r0
 8000600:	6803      	ldr	r3, [r0, #0]
 8000602:	2b0f      	cmp	r3, #15
 8000604:	d839      	bhi.n	800067a <HAL_RCC_OscConfig+0x86>
 8000606:	6823      	ldr	r3, [r4, #0]
 8000608:	f013 0f01 	tst.w	r3, #1
 800060c:	d04d      	beq.n	80006aa <HAL_RCC_OscConfig+0xb6>
 800060e:	6863      	ldr	r3, [r4, #4]
 8000610:	b12b      	cbz	r3, 800061e <HAL_RCC_OscConfig+0x2a>
 8000612:	f5b3 3f80 	cmp.w	r3, #65536	; 0x10000
 8000616:	d002      	beq.n	800061e <HAL_RCC_OscConfig+0x2a>
 8000618:	f5b3 2fa0 	cmp.w	r3, #327680	; 0x50000
 800061c:	d132      	bne.n	8000684 <HAL_RCC_OscConfig+0x90>
 800061e:	4b80      	ldr	r3, [pc, #512]	; (8000820 <HAL_RCC_OscConfig+0x22c>)
 8000620:	689b      	ldr	r3, [r3, #8]
 8000622:	f003 030c 	and.w	r3, r3, #12
 8000626:	2b04      	cmp	r3, #4
 8000628:	d036      	beq.n	8000698 <HAL_RCC_OscConfig+0xa4>
 800062a:	4b7d      	ldr	r3, [pc, #500]	; (8000820 <HAL_RCC_OscConfig+0x22c>)
 800062c:	689b      	ldr	r3, [r3, #8]
 800062e:	f003 030c 	and.w	r3, r3, #12
 8000632:	2b08      	cmp	r3, #8
 8000634:	d02b      	beq.n	800068e <HAL_RCC_OscConfig+0x9a>
 8000636:	6863      	ldr	r3, [r4, #4]
 8000638:	f5b3 3f80 	cmp.w	r3, #65536	; 0x10000
 800063c:	d05f      	beq.n	80006fe <HAL_RCC_OscConfig+0x10a>
 800063e:	f5b3 2fa0 	cmp.w	r3, #327680	; 0x50000
 8000642:	d062      	beq.n	800070a <HAL_RCC_OscConfig+0x116>
 8000644:	4b76      	ldr	r3, [pc, #472]	; (8000820 <HAL_RCC_OscConfig+0x22c>)
 8000646:	681a      	ldr	r2, [r3, #0]
 8000648:	f422 3280 	bic.w	r2, r2, #65536	; 0x10000
 800064c:	601a      	str	r2, [r3, #0]
 800064e:	681a      	ldr	r2, [r3, #0]
 8000650:	f422 2280 	bic.w	r2, r2, #262144	; 0x40000
 8000654:	601a      	str	r2, [r3, #0]
 8000656:	6863      	ldr	r3, [r4, #4]
 8000658:	2b00      	cmp	r3, #0
 800065a:	d060      	beq.n	800071e <HAL_RCC_OscConfig+0x12a>
 800065c:	f7ff ff20 	bl	80004a0 <HAL_GetTick>
 8000660:	4605      	mov	r5, r0
 8000662:	4b6f      	ldr	r3, [pc, #444]	; (8000820 <HAL_RCC_OscConfig+0x22c>)
 8000664:	681b      	ldr	r3, [r3, #0]
 8000666:	f413 3f00 	tst.w	r3, #131072	; 0x20000
 800066a:	d11e      	bne.n	80006aa <HAL_RCC_OscConfig+0xb6>
 800066c:	f7ff ff18 	bl	80004a0 <HAL_GetTick>
 8000670:	1b40      	subs	r0, r0, r5
 8000672:	2864      	cmp	r0, #100	; 0x64
 8000674:	d9f5      	bls.n	8000662 <HAL_RCC_OscConfig+0x6e>
 8000676:	2003      	movs	r0, #3
 8000678:	e221      	b.n	8000abe <HAL_RCC_OscConfig+0x4ca>
 800067a:	21e8      	movs	r1, #232	; 0xe8
 800067c:	4869      	ldr	r0, [pc, #420]	; (8000824 <HAL_RCC_OscConfig+0x230>)
 800067e:	f001 f89b 	bl	80017b8 <assert_failed>
 8000682:	e7c0      	b.n	8000606 <HAL_RCC_OscConfig+0x12>
 8000684:	21ed      	movs	r1, #237	; 0xed
 8000686:	4867      	ldr	r0, [pc, #412]	; (8000824 <HAL_RCC_OscConfig+0x230>)
 8000688:	f001 f896 	bl	80017b8 <assert_failed>
 800068c:	e7c7      	b.n	800061e <HAL_RCC_OscConfig+0x2a>
 800068e:	4b64      	ldr	r3, [pc, #400]	; (8000820 <HAL_RCC_OscConfig+0x22c>)
 8000690:	685b      	ldr	r3, [r3, #4]
 8000692:	f413 0f80 	tst.w	r3, #4194304	; 0x400000
 8000696:	d0ce      	beq.n	8000636 <HAL_RCC_OscConfig+0x42>
 8000698:	4b61      	ldr	r3, [pc, #388]	; (8000820 <HAL_RCC_OscConfig+0x22c>)
 800069a:	681b      	ldr	r3, [r3, #0]
 800069c:	f413 3f00 	tst.w	r3, #131072	; 0x20000
 80006a0:	d003      	beq.n	80006aa <HAL_RCC_OscConfig+0xb6>
 80006a2:	6863      	ldr	r3, [r4, #4]
 80006a4:	2b00      	cmp	r3, #0
 80006a6:	f000 8205 	beq.w	8000ab4 <HAL_RCC_OscConfig+0x4c0>
 80006aa:	6823      	ldr	r3, [r4, #0]
 80006ac:	f013 0f02 	tst.w	r3, #2
 80006b0:	d066      	beq.n	8000780 <HAL_RCC_OscConfig+0x18c>
 80006b2:	68e3      	ldr	r3, [r4, #12]
 80006b4:	2b01      	cmp	r3, #1
 80006b6:	d841      	bhi.n	800073c <HAL_RCC_OscConfig+0x148>
 80006b8:	6923      	ldr	r3, [r4, #16]
 80006ba:	2b1f      	cmp	r3, #31
 80006bc:	d844      	bhi.n	8000748 <HAL_RCC_OscConfig+0x154>
 80006be:	4b58      	ldr	r3, [pc, #352]	; (8000820 <HAL_RCC_OscConfig+0x22c>)
 80006c0:	689b      	ldr	r3, [r3, #8]
 80006c2:	f013 0f0c 	tst.w	r3, #12
 80006c6:	d04a      	beq.n	800075e <HAL_RCC_OscConfig+0x16a>
 80006c8:	4b55      	ldr	r3, [pc, #340]	; (8000820 <HAL_RCC_OscConfig+0x22c>)
 80006ca:	689b      	ldr	r3, [r3, #8]
 80006cc:	f003 030c 	and.w	r3, r3, #12
 80006d0:	2b08      	cmp	r3, #8
 80006d2:	d03f      	beq.n	8000754 <HAL_RCC_OscConfig+0x160>
 80006d4:	68e3      	ldr	r3, [r4, #12]
 80006d6:	2b00      	cmp	r3, #0
 80006d8:	d077      	beq.n	80007ca <HAL_RCC_OscConfig+0x1d6>
 80006da:	4b53      	ldr	r3, [pc, #332]	; (8000828 <HAL_RCC_OscConfig+0x234>)
 80006dc:	2201      	movs	r2, #1
 80006de:	601a      	str	r2, [r3, #0]
 80006e0:	f7ff fede 	bl	80004a0 <HAL_GetTick>
 80006e4:	4605      	mov	r5, r0
 80006e6:	4b4e      	ldr	r3, [pc, #312]	; (8000820 <HAL_RCC_OscConfig+0x22c>)
 80006e8:	681b      	ldr	r3, [r3, #0]
 80006ea:	f013 0f02 	tst.w	r3, #2
 80006ee:	d163      	bne.n	80007b8 <HAL_RCC_OscConfig+0x1c4>
 80006f0:	f7ff fed6 	bl	80004a0 <HAL_GetTick>
 80006f4:	1b40      	subs	r0, r0, r5
 80006f6:	2802      	cmp	r0, #2
 80006f8:	d9f5      	bls.n	80006e6 <HAL_RCC_OscConfig+0xf2>
 80006fa:	2003      	movs	r0, #3
 80006fc:	e1df      	b.n	8000abe <HAL_RCC_OscConfig+0x4ca>
 80006fe:	4a48      	ldr	r2, [pc, #288]	; (8000820 <HAL_RCC_OscConfig+0x22c>)
 8000700:	6813      	ldr	r3, [r2, #0]
 8000702:	f443 3380 	orr.w	r3, r3, #65536	; 0x10000
 8000706:	6013      	str	r3, [r2, #0]
 8000708:	e7a5      	b.n	8000656 <HAL_RCC_OscConfig+0x62>
 800070a:	4b45      	ldr	r3, [pc, #276]	; (8000820 <HAL_RCC_OscConfig+0x22c>)
 800070c:	681a      	ldr	r2, [r3, #0]
 800070e:	f442 2280 	orr.w	r2, r2, #262144	; 0x40000
 8000712:	601a      	str	r2, [r3, #0]
 8000714:	681a      	ldr	r2, [r3, #0]
 8000716:	f442 3280 	orr.w	r2, r2, #65536	; 0x10000
 800071a:	601a      	str	r2, [r3, #0]
 800071c:	e79b      	b.n	8000656 <HAL_RCC_OscConfig+0x62>
 800071e:	f7ff febf 	bl	80004a0 <HAL_GetTick>
 8000722:	4605      	mov	r5, r0
 8000724:	4b3e      	ldr	r3, [pc, #248]	; (8000820 <HAL_RCC_OscConfig+0x22c>)
 8000726:	681b      	ldr	r3, [r3, #0]
 8000728:	f413 3f00 	tst.w	r3, #131072	; 0x20000
 800072c:	d0bd      	beq.n	80006aa <HAL_RCC_OscConfig+0xb6>
 800072e:	f7ff feb7 	bl	80004a0 <HAL_GetTick>
 8000732:	1b40      	subs	r0, r0, r5
 8000734:	2864      	cmp	r0, #100	; 0x64
 8000736:	d9f5      	bls.n	8000724 <HAL_RCC_OscConfig+0x130>
 8000738:	2003      	movs	r0, #3
 800073a:	e1c0      	b.n	8000abe <HAL_RCC_OscConfig+0x4ca>
 800073c:	f240 111f 	movw	r1, #287	; 0x11f
 8000740:	4838      	ldr	r0, [pc, #224]	; (8000824 <HAL_RCC_OscConfig+0x230>)
 8000742:	f001 f839 	bl	80017b8 <assert_failed>
 8000746:	e7b7      	b.n	80006b8 <HAL_RCC_OscConfig+0xc4>
 8000748:	f44f 7190 	mov.w	r1, #288	; 0x120
 800074c:	4835      	ldr	r0, [pc, #212]	; (8000824 <HAL_RCC_OscConfig+0x230>)
 800074e:	f001 f833 	bl	80017b8 <assert_failed>
 8000752:	e7b4      	b.n	80006be <HAL_RCC_OscConfig+0xca>
 8000754:	4b32      	ldr	r3, [pc, #200]	; (8000820 <HAL_RCC_OscConfig+0x22c>)
 8000756:	685b      	ldr	r3, [r3, #4]
 8000758:	f413 0f80 	tst.w	r3, #4194304	; 0x400000
 800075c:	d1ba      	bne.n	80006d4 <HAL_RCC_OscConfig+0xe0>
 800075e:	4b30      	ldr	r3, [pc, #192]	; (8000820 <HAL_RCC_OscConfig+0x22c>)
 8000760:	681b      	ldr	r3, [r3, #0]
 8000762:	f013 0f02 	tst.w	r3, #2
 8000766:	d003      	beq.n	8000770 <HAL_RCC_OscConfig+0x17c>
 8000768:	68e3      	ldr	r3, [r4, #12]
 800076a:	2b01      	cmp	r3, #1
 800076c:	f040 81a4 	bne.w	8000ab8 <HAL_RCC_OscConfig+0x4c4>
 8000770:	4a2b      	ldr	r2, [pc, #172]	; (8000820 <HAL_RCC_OscConfig+0x22c>)
 8000772:	6813      	ldr	r3, [r2, #0]
 8000774:	f023 03f8 	bic.w	r3, r3, #248	; 0xf8
 8000778:	6921      	ldr	r1, [r4, #16]
 800077a:	ea43 03c1 	orr.w	r3, r3, r1, lsl #3
 800077e:	6013      	str	r3, [r2, #0]
 8000780:	6823      	ldr	r3, [r4, #0]
 8000782:	f013 0f08 	tst.w	r3, #8
 8000786:	d051      	beq.n	800082c <HAL_RCC_OscConfig+0x238>
 8000788:	6963      	ldr	r3, [r4, #20]
 800078a:	2b01      	cmp	r3, #1
 800078c:	d82f      	bhi.n	80007ee <HAL_RCC_OscConfig+0x1fa>
 800078e:	6963      	ldr	r3, [r4, #20]
 8000790:	b39b      	cbz	r3, 80007fa <HAL_RCC_OscConfig+0x206>
 8000792:	4b25      	ldr	r3, [pc, #148]	; (8000828 <HAL_RCC_OscConfig+0x234>)
 8000794:	2201      	movs	r2, #1
 8000796:	f8c3 2e80 	str.w	r2, [r3, #3712]	; 0xe80
 800079a:	f7ff fe81 	bl	80004a0 <HAL_GetTick>
 800079e:	4605      	mov	r5, r0
 80007a0:	4b1f      	ldr	r3, [pc, #124]	; (8000820 <HAL_RCC_OscConfig+0x22c>)
 80007a2:	6f5b      	ldr	r3, [r3, #116]	; 0x74
 80007a4:	f013 0f02 	tst.w	r3, #2
 80007a8:	d140      	bne.n	800082c <HAL_RCC_OscConfig+0x238>
 80007aa:	f7ff fe79 	bl	80004a0 <HAL_GetTick>
 80007ae:	1b40      	subs	r0, r0, r5
 80007b0:	2802      	cmp	r0, #2
 80007b2:	d9f5      	bls.n	80007a0 <HAL_RCC_OscConfig+0x1ac>
 80007b4:	2003      	movs	r0, #3
 80007b6:	e182      	b.n	8000abe <HAL_RCC_OscConfig+0x4ca>
 80007b8:	4a19      	ldr	r2, [pc, #100]	; (8000820 <HAL_RCC_OscConfig+0x22c>)
 80007ba:	6813      	ldr	r3, [r2, #0]
 80007bc:	f023 03f8 	bic.w	r3, r3, #248	; 0xf8
 80007c0:	6921      	ldr	r1, [r4, #16]
 80007c2:	ea43 03c1 	orr.w	r3, r3, r1, lsl #3
 80007c6:	6013      	str	r3, [r2, #0]
 80007c8:	e7da      	b.n	8000780 <HAL_RCC_OscConfig+0x18c>
 80007ca:	4b17      	ldr	r3, [pc, #92]	; (8000828 <HAL_RCC_OscConfig+0x234>)
 80007cc:	2200      	movs	r2, #0
 80007ce:	601a      	str	r2, [r3, #0]
 80007d0:	f7ff fe66 	bl	80004a0 <HAL_GetTick>
 80007d4:	4605      	mov	r5, r0
 80007d6:	4b12      	ldr	r3, [pc, #72]	; (8000820 <HAL_RCC_OscConfig+0x22c>)
 80007d8:	681b      	ldr	r3, [r3, #0]
 80007da:	f013 0f02 	tst.w	r3, #2
 80007de:	d0cf      	beq.n	8000780 <HAL_RCC_OscConfig+0x18c>
 80007e0:	f7ff fe5e 	bl	80004a0 <HAL_GetTick>
 80007e4:	1b40      	subs	r0, r0, r5
 80007e6:	2802      	cmp	r0, #2
 80007e8:	d9f5      	bls.n	80007d6 <HAL_RCC_OscConfig+0x1e2>
 80007ea:	2003      	movs	r0, #3
 80007ec:	e167      	b.n	8000abe <HAL_RCC_OscConfig+0x4ca>
 80007ee:	f44f 71b0 	mov.w	r1, #352	; 0x160
 80007f2:	480c      	ldr	r0, [pc, #48]	; (8000824 <HAL_RCC_OscConfig+0x230>)
 80007f4:	f000 ffe0 	bl	80017b8 <assert_failed>
 80007f8:	e7c9      	b.n	800078e <HAL_RCC_OscConfig+0x19a>
 80007fa:	4b0b      	ldr	r3, [pc, #44]	; (8000828 <HAL_RCC_OscConfig+0x234>)
 80007fc:	2200      	movs	r2, #0
 80007fe:	f8c3 2e80 	str.w	r2, [r3, #3712]	; 0xe80
 8000802:	f7ff fe4d 	bl	80004a0 <HAL_GetTick>
 8000806:	4605      	mov	r5, r0
 8000808:	4b05      	ldr	r3, [pc, #20]	; (8000820 <HAL_RCC_OscConfig+0x22c>)
 800080a:	6f5b      	ldr	r3, [r3, #116]	; 0x74
 800080c:	f013 0f02 	tst.w	r3, #2
 8000810:	d00c      	beq.n	800082c <HAL_RCC_OscConfig+0x238>
 8000812:	f7ff fe45 	bl	80004a0 <HAL_GetTick>
 8000816:	1b40      	subs	r0, r0, r5
 8000818:	2802      	cmp	r0, #2
 800081a:	d9f5      	bls.n	8000808 <HAL_RCC_OscConfig+0x214>
 800081c:	2003      	movs	r0, #3
 800081e:	e14e      	b.n	8000abe <HAL_RCC_OscConfig+0x4ca>
 8000820:	40023800 	andmi	r3, r2, r0, lsl #16
 8000824:	080027d0 	stmdaeq	r0, {r4, r6, r7, r8, r9, sl, sp}
 8000828:	42470000 	submi	r0, r7, #0
 800082c:	6823      	ldr	r3, [r4, #0]
 800082e:	f013 0f04 	tst.w	r3, #4
 8000832:	d07c      	beq.n	800092e <HAL_RCC_OscConfig+0x33a>
 8000834:	68a3      	ldr	r3, [r4, #8]
 8000836:	2b01      	cmp	r3, #1
 8000838:	d901      	bls.n	800083e <HAL_RCC_OscConfig+0x24a>
 800083a:	2b05      	cmp	r3, #5
 800083c:	d138      	bne.n	80008b0 <HAL_RCC_OscConfig+0x2bc>
 800083e:	4ba4      	ldr	r3, [pc, #656]	; (8000ad0 <HAL_RCC_OscConfig+0x4dc>)
 8000840:	6c1b      	ldr	r3, [r3, #64]	; 0x40
 8000842:	f013 5f80 	tst.w	r3, #268435456	; 0x10000000
 8000846:	d139      	bne.n	80008bc <HAL_RCC_OscConfig+0x2c8>
 8000848:	2300      	movs	r3, #0
 800084a:	9301      	str	r3, [sp, #4]
 800084c:	4ba0      	ldr	r3, [pc, #640]	; (8000ad0 <HAL_RCC_OscConfig+0x4dc>)
 800084e:	6c1a      	ldr	r2, [r3, #64]	; 0x40
 8000850:	f042 5280 	orr.w	r2, r2, #268435456	; 0x10000000
 8000854:	641a      	str	r2, [r3, #64]	; 0x40
 8000856:	6c1b      	ldr	r3, [r3, #64]	; 0x40
 8000858:	f003 5380 	and.w	r3, r3, #268435456	; 0x10000000
 800085c:	9301      	str	r3, [sp, #4]
 800085e:	9b01      	ldr	r3, [sp, #4]
 8000860:	2501      	movs	r5, #1
 8000862:	4b9c      	ldr	r3, [pc, #624]	; (8000ad4 <HAL_RCC_OscConfig+0x4e0>)
 8000864:	681b      	ldr	r3, [r3, #0]
 8000866:	f413 7f80 	tst.w	r3, #256	; 0x100
 800086a:	d029      	beq.n	80008c0 <HAL_RCC_OscConfig+0x2cc>
 800086c:	68a3      	ldr	r3, [r4, #8]
 800086e:	2b01      	cmp	r3, #1
 8000870:	d03a      	beq.n	80008e8 <HAL_RCC_OscConfig+0x2f4>
 8000872:	2b05      	cmp	r3, #5
 8000874:	d03e      	beq.n	80008f4 <HAL_RCC_OscConfig+0x300>
 8000876:	4b96      	ldr	r3, [pc, #600]	; (8000ad0 <HAL_RCC_OscConfig+0x4dc>)
 8000878:	6f1a      	ldr	r2, [r3, #112]	; 0x70
 800087a:	f022 0201 	bic.w	r2, r2, #1
 800087e:	671a      	str	r2, [r3, #112]	; 0x70
 8000880:	6f1a      	ldr	r2, [r3, #112]	; 0x70
 8000882:	f022 0204 	bic.w	r2, r2, #4
 8000886:	671a      	str	r2, [r3, #112]	; 0x70
 8000888:	68a3      	ldr	r3, [r4, #8]
 800088a:	2b00      	cmp	r3, #0
 800088c:	d03c      	beq.n	8000908 <HAL_RCC_OscConfig+0x314>
 800088e:	f7ff fe07 	bl	80004a0 <HAL_GetTick>
 8000892:	4606      	mov	r6, r0
 8000894:	4b8e      	ldr	r3, [pc, #568]	; (8000ad0 <HAL_RCC_OscConfig+0x4dc>)
 8000896:	6f1b      	ldr	r3, [r3, #112]	; 0x70
 8000898:	f013 0f02 	tst.w	r3, #2
 800089c:	d145      	bne.n	800092a <HAL_RCC_OscConfig+0x336>
 800089e:	f7ff fdff 	bl	80004a0 <HAL_GetTick>
 80008a2:	1b80      	subs	r0, r0, r6
 80008a4:	f241 3388 	movw	r3, #5000	; 0x1388
 80008a8:	4298      	cmp	r0, r3
 80008aa:	d9f3      	bls.n	8000894 <HAL_RCC_OscConfig+0x2a0>
 80008ac:	2003      	movs	r0, #3
 80008ae:	e106      	b.n	8000abe <HAL_RCC_OscConfig+0x4ca>
 80008b0:	f44f 71c6 	mov.w	r1, #396	; 0x18c
 80008b4:	4888      	ldr	r0, [pc, #544]	; (8000ad8 <HAL_RCC_OscConfig+0x4e4>)
 80008b6:	f000 ff7f 	bl	80017b8 <assert_failed>
 80008ba:	e7c0      	b.n	800083e <HAL_RCC_OscConfig+0x24a>
 80008bc:	2500      	movs	r5, #0
 80008be:	e7d0      	b.n	8000862 <HAL_RCC_OscConfig+0x26e>
 80008c0:	4a84      	ldr	r2, [pc, #528]	; (8000ad4 <HAL_RCC_OscConfig+0x4e0>)
 80008c2:	6813      	ldr	r3, [r2, #0]
 80008c4:	f443 7380 	orr.w	r3, r3, #256	; 0x100
 80008c8:	6013      	str	r3, [r2, #0]
 80008ca:	f7ff fde9 	bl	80004a0 <HAL_GetTick>
 80008ce:	4606      	mov	r6, r0
 80008d0:	4b80      	ldr	r3, [pc, #512]	; (8000ad4 <HAL_RCC_OscConfig+0x4e0>)
 80008d2:	681b      	ldr	r3, [r3, #0]
 80008d4:	f413 7f80 	tst.w	r3, #256	; 0x100
 80008d8:	d1c8      	bne.n	800086c <HAL_RCC_OscConfig+0x278>
 80008da:	f7ff fde1 	bl	80004a0 <HAL_GetTick>
 80008de:	1b80      	subs	r0, r0, r6
 80008e0:	2802      	cmp	r0, #2
 80008e2:	d9f5      	bls.n	80008d0 <HAL_RCC_OscConfig+0x2dc>
 80008e4:	2003      	movs	r0, #3
 80008e6:	e0ea      	b.n	8000abe <HAL_RCC_OscConfig+0x4ca>
 80008e8:	4a79      	ldr	r2, [pc, #484]	; (8000ad0 <HAL_RCC_OscConfig+0x4dc>)
 80008ea:	6f13      	ldr	r3, [r2, #112]	; 0x70
 80008ec:	f043 0301 	orr.w	r3, r3, #1
 80008f0:	6713      	str	r3, [r2, #112]	; 0x70
 80008f2:	e7c9      	b.n	8000888 <HAL_RCC_OscConfig+0x294>
 80008f4:	4b76      	ldr	r3, [pc, #472]	; (8000ad0 <HAL_RCC_OscConfig+0x4dc>)
 80008f6:	6f1a      	ldr	r2, [r3, #112]	; 0x70
 80008f8:	f042 0204 	orr.w	r2, r2, #4
 80008fc:	671a      	str	r2, [r3, #112]	; 0x70
 80008fe:	6f1a      	ldr	r2, [r3, #112]	; 0x70
 8000900:	f042 0201 	orr.w	r2, r2, #1
 8000904:	671a      	str	r2, [r3, #112]	; 0x70
 8000906:	e7bf      	b.n	8000888 <HAL_RCC_OscConfig+0x294>
 8000908:	f7ff fdca 	bl	80004a0 <HAL_GetTick>
 800090c:	4606      	mov	r6, r0
 800090e:	4b70      	ldr	r3, [pc, #448]	; (8000ad0 <HAL_RCC_OscConfig+0x4dc>)
 8000910:	6f1b      	ldr	r3, [r3, #112]	; 0x70
 8000912:	f013 0f02 	tst.w	r3, #2
 8000916:	d008      	beq.n	800092a <HAL_RCC_OscConfig+0x336>
 8000918:	f7ff fdc2 	bl	80004a0 <HAL_GetTick>
 800091c:	1b80      	subs	r0, r0, r6
 800091e:	f241 3388 	movw	r3, #5000	; 0x1388
 8000922:	4298      	cmp	r0, r3
 8000924:	d9f3      	bls.n	800090e <HAL_RCC_OscConfig+0x31a>
 8000926:	2003      	movs	r0, #3
 8000928:	e0c9      	b.n	8000abe <HAL_RCC_OscConfig+0x4ca>
 800092a:	2d00      	cmp	r5, #0
 800092c:	d13e      	bne.n	80009ac <HAL_RCC_OscConfig+0x3b8>
 800092e:	69a3      	ldr	r3, [r4, #24]
 8000930:	2b02      	cmp	r3, #2
 8000932:	d841      	bhi.n	80009b8 <HAL_RCC_OscConfig+0x3c4>
 8000934:	69a3      	ldr	r3, [r4, #24]
 8000936:	2b00      	cmp	r3, #0
 8000938:	f000 80c0 	beq.w	8000abc <HAL_RCC_OscConfig+0x4c8>
 800093c:	4a64      	ldr	r2, [pc, #400]	; (8000ad0 <HAL_RCC_OscConfig+0x4dc>)
 800093e:	6892      	ldr	r2, [r2, #8]
 8000940:	f002 020c 	and.w	r2, r2, #12
 8000944:	2a08      	cmp	r2, #8
 8000946:	f000 8093 	beq.w	8000a70 <HAL_RCC_OscConfig+0x47c>
 800094a:	2b02      	cmp	r3, #2
 800094c:	d17c      	bne.n	8000a48 <HAL_RCC_OscConfig+0x454>
 800094e:	69e3      	ldr	r3, [r4, #28]
 8000950:	b113      	cbz	r3, 8000958 <HAL_RCC_OscConfig+0x364>
 8000952:	f5b3 0f80 	cmp.w	r3, #4194304	; 0x400000
 8000956:	d135      	bne.n	80009c4 <HAL_RCC_OscConfig+0x3d0>
 8000958:	6a23      	ldr	r3, [r4, #32]
 800095a:	2b3f      	cmp	r3, #63	; 0x3f
 800095c:	d838      	bhi.n	80009d0 <HAL_RCC_OscConfig+0x3dc>
 800095e:	6a63      	ldr	r3, [r4, #36]	; 0x24
 8000960:	3b32      	subs	r3, #50	; 0x32
 8000962:	f5b3 7fbf 	cmp.w	r3, #382	; 0x17e
 8000966:	d839      	bhi.n	80009dc <HAL_RCC_OscConfig+0x3e8>
 8000968:	6aa3      	ldr	r3, [r4, #40]	; 0x28
 800096a:	2b02      	cmp	r3, #2
 800096c:	d008      	beq.n	8000980 <HAL_RCC_OscConfig+0x38c>
 800096e:	2b08      	cmp	r3, #8
 8000970:	d83a      	bhi.n	80009e8 <HAL_RCC_OscConfig+0x3f4>
 8000972:	f44f 72a8 	mov.w	r2, #336	; 0x150
 8000976:	fa22 f303 	lsr.w	r3, r2, r3
 800097a:	f013 0f01 	tst.w	r3, #1
 800097e:	d033      	beq.n	80009e8 <HAL_RCC_OscConfig+0x3f4>
 8000980:	6ae3      	ldr	r3, [r4, #44]	; 0x2c
 8000982:	3b02      	subs	r3, #2
 8000984:	2b0d      	cmp	r3, #13
 8000986:	d835      	bhi.n	80009f4 <HAL_RCC_OscConfig+0x400>
 8000988:	4b54      	ldr	r3, [pc, #336]	; (8000adc <HAL_RCC_OscConfig+0x4e8>)
 800098a:	2200      	movs	r2, #0
 800098c:	661a      	str	r2, [r3, #96]	; 0x60
 800098e:	f7ff fd87 	bl	80004a0 <HAL_GetTick>
 8000992:	4605      	mov	r5, r0
 8000994:	4b4e      	ldr	r3, [pc, #312]	; (8000ad0 <HAL_RCC_OscConfig+0x4dc>)
 8000996:	681b      	ldr	r3, [r3, #0]
 8000998:	f013 7f00 	tst.w	r3, #33554432	; 0x2000000
 800099c:	d030      	beq.n	8000a00 <HAL_RCC_OscConfig+0x40c>
 800099e:	f7ff fd7f 	bl	80004a0 <HAL_GetTick>
 80009a2:	1b40      	subs	r0, r0, r5
 80009a4:	2802      	cmp	r0, #2
 80009a6:	d9f5      	bls.n	8000994 <HAL_RCC_OscConfig+0x3a0>
 80009a8:	2003      	movs	r0, #3
 80009aa:	e088      	b.n	8000abe <HAL_RCC_OscConfig+0x4ca>
 80009ac:	4a48      	ldr	r2, [pc, #288]	; (8000ad0 <HAL_RCC_OscConfig+0x4dc>)
 80009ae:	6c13      	ldr	r3, [r2, #64]	; 0x40
 80009b0:	f023 5380 	bic.w	r3, r3, #268435456	; 0x10000000
 80009b4:	6413      	str	r3, [r2, #64]	; 0x40
 80009b6:	e7ba      	b.n	800092e <HAL_RCC_OscConfig+0x33a>
 80009b8:	f240 11cf 	movw	r1, #463	; 0x1cf
 80009bc:	4846      	ldr	r0, [pc, #280]	; (8000ad8 <HAL_RCC_OscConfig+0x4e4>)
 80009be:	f000 fefb 	bl	80017b8 <assert_failed>
 80009c2:	e7b7      	b.n	8000934 <HAL_RCC_OscConfig+0x340>
 80009c4:	f44f 71ec 	mov.w	r1, #472	; 0x1d8
 80009c8:	4843      	ldr	r0, [pc, #268]	; (8000ad8 <HAL_RCC_OscConfig+0x4e4>)
 80009ca:	f000 fef5 	bl	80017b8 <assert_failed>
 80009ce:	e7c3      	b.n	8000958 <HAL_RCC_OscConfig+0x364>
 80009d0:	f240 11d9 	movw	r1, #473	; 0x1d9
 80009d4:	4840      	ldr	r0, [pc, #256]	; (8000ad8 <HAL_RCC_OscConfig+0x4e4>)
 80009d6:	f000 feef 	bl	80017b8 <assert_failed>
 80009da:	e7c0      	b.n	800095e <HAL_RCC_OscConfig+0x36a>
 80009dc:	f44f 71ed 	mov.w	r1, #474	; 0x1da
 80009e0:	483d      	ldr	r0, [pc, #244]	; (8000ad8 <HAL_RCC_OscConfig+0x4e4>)
 80009e2:	f000 fee9 	bl	80017b8 <assert_failed>
 80009e6:	e7bf      	b.n	8000968 <HAL_RCC_OscConfig+0x374>
 80009e8:	f240 11db 	movw	r1, #475	; 0x1db
 80009ec:	483a      	ldr	r0, [pc, #232]	; (8000ad8 <HAL_RCC_OscConfig+0x4e4>)
 80009ee:	f000 fee3 	bl	80017b8 <assert_failed>
 80009f2:	e7c5      	b.n	8000980 <HAL_RCC_OscConfig+0x38c>
 80009f4:	f44f 71ee 	mov.w	r1, #476	; 0x1dc
 80009f8:	4837      	ldr	r0, [pc, #220]	; (8000ad8 <HAL_RCC_OscConfig+0x4e4>)
 80009fa:	f000 fedd 	bl	80017b8 <assert_failed>
 80009fe:	e7c3      	b.n	8000988 <HAL_RCC_OscConfig+0x394>
 8000a00:	69e3      	ldr	r3, [r4, #28]
 8000a02:	6a22      	ldr	r2, [r4, #32]
 8000a04:	4313      	orrs	r3, r2
 8000a06:	6a62      	ldr	r2, [r4, #36]	; 0x24
 8000a08:	ea43 1382 	orr.w	r3, r3, r2, lsl #6
 8000a0c:	6aa2      	ldr	r2, [r4, #40]	; 0x28
 8000a0e:	0852      	lsrs	r2, r2, #1
 8000a10:	3a01      	subs	r2, #1
 8000a12:	ea43 4302 	orr.w	r3, r3, r2, lsl #16
 8000a16:	6ae2      	ldr	r2, [r4, #44]	; 0x2c
 8000a18:	ea43 6302 	orr.w	r3, r3, r2, lsl #24
 8000a1c:	4a2c      	ldr	r2, [pc, #176]	; (8000ad0 <HAL_RCC_OscConfig+0x4dc>)
 8000a1e:	6053      	str	r3, [r2, #4]
 8000a20:	4b2e      	ldr	r3, [pc, #184]	; (8000adc <HAL_RCC_OscConfig+0x4e8>)
 8000a22:	2201      	movs	r2, #1
 8000a24:	661a      	str	r2, [r3, #96]	; 0x60
 8000a26:	f7ff fd3b 	bl	80004a0 <HAL_GetTick>
 8000a2a:	4604      	mov	r4, r0
 8000a2c:	4b28      	ldr	r3, [pc, #160]	; (8000ad0 <HAL_RCC_OscConfig+0x4dc>)
 8000a2e:	681b      	ldr	r3, [r3, #0]
 8000a30:	f013 7f00 	tst.w	r3, #33554432	; 0x2000000
 8000a34:	d106      	bne.n	8000a44 <HAL_RCC_OscConfig+0x450>
 8000a36:	f7ff fd33 	bl	80004a0 <HAL_GetTick>
 8000a3a:	1b00      	subs	r0, r0, r4
 8000a3c:	2802      	cmp	r0, #2
 8000a3e:	d9f5      	bls.n	8000a2c <HAL_RCC_OscConfig+0x438>
 8000a40:	2003      	movs	r0, #3
 8000a42:	e03c      	b.n	8000abe <HAL_RCC_OscConfig+0x4ca>
 8000a44:	2000      	movs	r0, #0
 8000a46:	e03a      	b.n	8000abe <HAL_RCC_OscConfig+0x4ca>
 8000a48:	4b24      	ldr	r3, [pc, #144]	; (8000adc <HAL_RCC_OscConfig+0x4e8>)
 8000a4a:	2200      	movs	r2, #0
 8000a4c:	661a      	str	r2, [r3, #96]	; 0x60
 8000a4e:	f7ff fd27 	bl	80004a0 <HAL_GetTick>
 8000a52:	4604      	mov	r4, r0
 8000a54:	4b1e      	ldr	r3, [pc, #120]	; (8000ad0 <HAL_RCC_OscConfig+0x4dc>)
 8000a56:	681b      	ldr	r3, [r3, #0]
 8000a58:	f013 7f00 	tst.w	r3, #33554432	; 0x2000000
 8000a5c:	d006      	beq.n	8000a6c <HAL_RCC_OscConfig+0x478>
 8000a5e:	f7ff fd1f 	bl	80004a0 <HAL_GetTick>
 8000a62:	1b00      	subs	r0, r0, r4
 8000a64:	2802      	cmp	r0, #2
 8000a66:	d9f5      	bls.n	8000a54 <HAL_RCC_OscConfig+0x460>
 8000a68:	2003      	movs	r0, #3
 8000a6a:	e028      	b.n	8000abe <HAL_RCC_OscConfig+0x4ca>
 8000a6c:	2000      	movs	r0, #0
 8000a6e:	e026      	b.n	8000abe <HAL_RCC_OscConfig+0x4ca>
 8000a70:	2b01      	cmp	r3, #1
 8000a72:	d026      	beq.n	8000ac2 <HAL_RCC_OscConfig+0x4ce>
 8000a74:	4b16      	ldr	r3, [pc, #88]	; (8000ad0 <HAL_RCC_OscConfig+0x4dc>)
 8000a76:	685b      	ldr	r3, [r3, #4]
 8000a78:	f403 0180 	and.w	r1, r3, #4194304	; 0x400000
 8000a7c:	69e2      	ldr	r2, [r4, #28]
 8000a7e:	4291      	cmp	r1, r2
 8000a80:	d121      	bne.n	8000ac6 <HAL_RCC_OscConfig+0x4d2>
 8000a82:	f003 023f 	and.w	r2, r3, #63	; 0x3f
 8000a86:	6a21      	ldr	r1, [r4, #32]
 8000a88:	428a      	cmp	r2, r1
 8000a8a:	d11e      	bne.n	8000aca <HAL_RCC_OscConfig+0x4d6>
 8000a8c:	6a61      	ldr	r1, [r4, #36]	; 0x24
 8000a8e:	f647 72c0 	movw	r2, #32704	; 0x7fc0
 8000a92:	401a      	ands	r2, r3
 8000a94:	428a      	cmp	r2, r1
 8000a96:	d123      	bne.n	8000ae0 <HAL_RCC_OscConfig+0x4ec>
 8000a98:	f403 3240 	and.w	r2, r3, #196608	; 0x30000
 8000a9c:	6aa1      	ldr	r1, [r4, #40]	; 0x28
 8000a9e:	428a      	cmp	r2, r1
 8000aa0:	d120      	bne.n	8000ae4 <HAL_RCC_OscConfig+0x4f0>
 8000aa2:	f003 6370 	and.w	r3, r3, #251658240	; 0xf000000
 8000aa6:	6ae2      	ldr	r2, [r4, #44]	; 0x2c
 8000aa8:	4293      	cmp	r3, r2
 8000aaa:	d11d      	bne.n	8000ae8 <HAL_RCC_OscConfig+0x4f4>
 8000aac:	2000      	movs	r0, #0
 8000aae:	e006      	b.n	8000abe <HAL_RCC_OscConfig+0x4ca>
 8000ab0:	2001      	movs	r0, #1
 8000ab2:	4770      	bx	lr
 8000ab4:	2001      	movs	r0, #1
 8000ab6:	e002      	b.n	8000abe <HAL_RCC_OscConfig+0x4ca>
 8000ab8:	2001      	movs	r0, #1
 8000aba:	e000      	b.n	8000abe <HAL_RCC_OscConfig+0x4ca>
 8000abc:	2000      	movs	r0, #0
 8000abe:	b002      	add	sp, #8
 8000ac0:	bd70      	pop	{r4, r5, r6, pc}
 8000ac2:	2001      	movs	r0, #1
 8000ac4:	e7fb      	b.n	8000abe <HAL_RCC_OscConfig+0x4ca>
 8000ac6:	2001      	movs	r0, #1
 8000ac8:	e7f9      	b.n	8000abe <HAL_RCC_OscConfig+0x4ca>
 8000aca:	2001      	movs	r0, #1
 8000acc:	e7f7      	b.n	8000abe <HAL_RCC_OscConfig+0x4ca>
 8000ace:	bf00      	nop
 8000ad0:	40023800 	andmi	r3, r2, r0, lsl #16
 8000ad4:	40007000 	andmi	r7, r0, r0
 8000ad8:	080027d0 	stmdaeq	r0, {r4, r6, r7, r8, r9, sl, sp}
 8000adc:	42470000 	submi	r0, r7, #0
 8000ae0:	2001      	movs	r0, #1
 8000ae2:	e7ec      	b.n	8000abe <HAL_RCC_OscConfig+0x4ca>
 8000ae4:	2001      	movs	r0, #1
 8000ae6:	e7ea      	b.n	8000abe <HAL_RCC_OscConfig+0x4ca>
 8000ae8:	2001      	movs	r0, #1
 8000aea:	e7e8      	b.n	8000abe <HAL_RCC_OscConfig+0x4ca>

08000aec <HAL_RCC_GetSysClockFreq>:
 8000aec:	b508      	push	{r3, lr}
 8000aee:	4b26      	ldr	r3, [pc, #152]	; (8000b88 <HAL_RCC_GetSysClockFreq+0x9c>)
 8000af0:	689b      	ldr	r3, [r3, #8]
 8000af2:	f003 030c 	and.w	r3, r3, #12
 8000af6:	2b04      	cmp	r3, #4
 8000af8:	d041      	beq.n	8000b7e <HAL_RCC_GetSysClockFreq+0x92>
 8000afa:	2b08      	cmp	r3, #8
 8000afc:	d141      	bne.n	8000b82 <HAL_RCC_GetSysClockFreq+0x96>
 8000afe:	4b22      	ldr	r3, [pc, #136]	; (8000b88 <HAL_RCC_GetSysClockFreq+0x9c>)
 8000b00:	685a      	ldr	r2, [r3, #4]
 8000b02:	f002 023f 	and.w	r2, r2, #63	; 0x3f
 8000b06:	685b      	ldr	r3, [r3, #4]
 8000b08:	f413 0f80 	tst.w	r3, #4194304	; 0x400000
 8000b0c:	d012      	beq.n	8000b34 <HAL_RCC_GetSysClockFreq+0x48>
 8000b0e:	4b1e      	ldr	r3, [pc, #120]	; (8000b88 <HAL_RCC_GetSysClockFreq+0x9c>)
 8000b10:	6859      	ldr	r1, [r3, #4]
 8000b12:	f3c1 1188 	ubfx	r1, r1, #6, #9
 8000b16:	481d      	ldr	r0, [pc, #116]	; (8000b8c <HAL_RCC_GetSysClockFreq+0xa0>)
 8000b18:	2300      	movs	r3, #0
 8000b1a:	fba1 0100 	umull	r0, r1, r1, r0
 8000b1e:	f000 ffd5 	bl	8001acc <__aeabi_uldivmod>
 8000b22:	4b19      	ldr	r3, [pc, #100]	; (8000b88 <HAL_RCC_GetSysClockFreq+0x9c>)
 8000b24:	685b      	ldr	r3, [r3, #4]
 8000b26:	f3c3 4301 	ubfx	r3, r3, #16, #2
 8000b2a:	3301      	adds	r3, #1
 8000b2c:	005b      	lsls	r3, r3, #1
 8000b2e:	fbb0 f0f3 	udiv	r0, r0, r3
 8000b32:	e027      	b.n	8000b84 <HAL_RCC_GetSysClockFreq+0x98>
 8000b34:	4b14      	ldr	r3, [pc, #80]	; (8000b88 <HAL_RCC_GetSysClockFreq+0x9c>)
 8000b36:	6858      	ldr	r0, [r3, #4]
 8000b38:	f3c0 1088 	ubfx	r0, r0, #6, #9
 8000b3c:	ea4f 1c40 	mov.w	ip, r0, lsl #5
 8000b40:	ebbc 0c00 	subs.w	ip, ip, r0
 8000b44:	eb6e 0e0e 	sbc.w	lr, lr, lr
 8000b48:	ea4f 138e 	mov.w	r3, lr, lsl #6
 8000b4c:	ea43 639c 	orr.w	r3, r3, ip, lsr #26
 8000b50:	ea4f 118c 	mov.w	r1, ip, lsl #6
 8000b54:	ebb1 010c 	subs.w	r1, r1, ip
 8000b58:	eb63 030e 	sbc.w	r3, r3, lr
 8000b5c:	00db      	lsls	r3, r3, #3
 8000b5e:	ea43 7351 	orr.w	r3, r3, r1, lsr #29
 8000b62:	00c9      	lsls	r1, r1, #3
 8000b64:	eb11 0c00 	adds.w	ip, r1, r0
 8000b68:	f143 0300 	adc.w	r3, r3, #0
 8000b6c:	0299      	lsls	r1, r3, #10
 8000b6e:	2300      	movs	r3, #0
 8000b70:	ea4f 208c 	mov.w	r0, ip, lsl #10
 8000b74:	ea41 519c 	orr.w	r1, r1, ip, lsr #22
 8000b78:	f000 ffa8 	bl	8001acc <__aeabi_uldivmod>
 8000b7c:	e7d1      	b.n	8000b22 <HAL_RCC_GetSysClockFreq+0x36>
 8000b7e:	4803      	ldr	r0, [pc, #12]	; (8000b8c <HAL_RCC_GetSysClockFreq+0xa0>)
 8000b80:	e000      	b.n	8000b84 <HAL_RCC_GetSysClockFreq+0x98>
 8000b82:	4803      	ldr	r0, [pc, #12]	; (8000b90 <HAL_RCC_GetSysClockFreq+0xa4>)
 8000b84:	bd08      	pop	{r3, pc}
 8000b86:	bf00      	nop
 8000b88:	40023800 	andmi	r3, r2, r0, lsl #16
 8000b8c:	017d7840 	cmneq	sp, r0, asr #16
 8000b90:	00f42400 	rscseq	r2, r4, r0, lsl #8

08000b94 <HAL_RCC_ClockConfig>:
 8000b94:	2800      	cmp	r0, #0
 8000b96:	f000 80fa 	beq.w	8000d8e <HAL_RCC_ClockConfig+0x1fa>
 8000b9a:	b570      	push	{r4, r5, r6, lr}
 8000b9c:	460d      	mov	r5, r1
 8000b9e:	4604      	mov	r4, r0
 8000ba0:	6803      	ldr	r3, [r0, #0]
 8000ba2:	3b01      	subs	r3, #1
 8000ba4:	2b0e      	cmp	r3, #14
 8000ba6:	d830      	bhi.n	8000c0a <HAL_RCC_ClockConfig+0x76>
 8000ba8:	2d07      	cmp	r5, #7
 8000baa:	d834      	bhi.n	8000c16 <HAL_RCC_ClockConfig+0x82>
 8000bac:	4b7c      	ldr	r3, [pc, #496]	; (8000da0 <HAL_RCC_ClockConfig+0x20c>)
 8000bae:	681b      	ldr	r3, [r3, #0]
 8000bb0:	f003 030f 	and.w	r3, r3, #15
 8000bb4:	42ab      	cmp	r3, r5
 8000bb6:	d208      	bcs.n	8000bca <HAL_RCC_ClockConfig+0x36>
 8000bb8:	b2eb      	uxtb	r3, r5
 8000bba:	4a79      	ldr	r2, [pc, #484]	; (8000da0 <HAL_RCC_ClockConfig+0x20c>)
 8000bbc:	7013      	strb	r3, [r2, #0]
 8000bbe:	6813      	ldr	r3, [r2, #0]
 8000bc0:	f003 030f 	and.w	r3, r3, #15
 8000bc4:	42ab      	cmp	r3, r5
 8000bc6:	f040 80e4 	bne.w	8000d92 <HAL_RCC_ClockConfig+0x1fe>
 8000bca:	6823      	ldr	r3, [r4, #0]
 8000bcc:	f013 0f02 	tst.w	r3, #2
 8000bd0:	d032      	beq.n	8000c38 <HAL_RCC_ClockConfig+0xa4>
 8000bd2:	f013 0f04 	tst.w	r3, #4
 8000bd6:	d004      	beq.n	8000be2 <HAL_RCC_ClockConfig+0x4e>
 8000bd8:	4a72      	ldr	r2, [pc, #456]	; (8000da4 <HAL_RCC_ClockConfig+0x210>)
 8000bda:	6893      	ldr	r3, [r2, #8]
 8000bdc:	f443 53e0 	orr.w	r3, r3, #7168	; 0x1c00
 8000be0:	6093      	str	r3, [r2, #8]
 8000be2:	6823      	ldr	r3, [r4, #0]
 8000be4:	f013 0f08 	tst.w	r3, #8
 8000be8:	d004      	beq.n	8000bf4 <HAL_RCC_ClockConfig+0x60>
 8000bea:	4a6e      	ldr	r2, [pc, #440]	; (8000da4 <HAL_RCC_ClockConfig+0x210>)
 8000bec:	6893      	ldr	r3, [r2, #8]
 8000bee:	f443 4360 	orr.w	r3, r3, #57344	; 0xe000
 8000bf2:	6093      	str	r3, [r2, #8]
 8000bf4:	68a3      	ldr	r3, [r4, #8]
 8000bf6:	b1c3      	cbz	r3, 8000c2a <HAL_RCC_ClockConfig+0x96>
 8000bf8:	2bc0      	cmp	r3, #192	; 0xc0
 8000bfa:	d016      	beq.n	8000c2a <HAL_RCC_ClockConfig+0x96>
 8000bfc:	d849      	bhi.n	8000c92 <HAL_RCC_ClockConfig+0xfe>
 8000bfe:	2ba0      	cmp	r3, #160	; 0xa0
 8000c00:	d013      	beq.n	8000c2a <HAL_RCC_ClockConfig+0x96>
 8000c02:	d90e      	bls.n	8000c22 <HAL_RCC_ClockConfig+0x8e>
 8000c04:	2bb0      	cmp	r3, #176	; 0xb0
 8000c06:	d010      	beq.n	8000c2a <HAL_RCC_ClockConfig+0x96>
 8000c08:	e049      	b.n	8000c9e <HAL_RCC_ClockConfig+0x10a>
 8000c0a:	f240 2151 	movw	r1, #593	; 0x251
 8000c0e:	4866      	ldr	r0, [pc, #408]	; (8000da8 <HAL_RCC_ClockConfig+0x214>)
 8000c10:	f000 fdd2 	bl	80017b8 <assert_failed>
 8000c14:	e7c8      	b.n	8000ba8 <HAL_RCC_ClockConfig+0x14>
 8000c16:	f240 2152 	movw	r1, #594	; 0x252
 8000c1a:	4863      	ldr	r0, [pc, #396]	; (8000da8 <HAL_RCC_ClockConfig+0x214>)
 8000c1c:	f000 fdcc 	bl	80017b8 <assert_failed>
 8000c20:	e7c4      	b.n	8000bac <HAL_RCC_ClockConfig+0x18>
 8000c22:	2b80      	cmp	r3, #128	; 0x80
 8000c24:	d001      	beq.n	8000c2a <HAL_RCC_ClockConfig+0x96>
 8000c26:	2b90      	cmp	r3, #144	; 0x90
 8000c28:	d139      	bne.n	8000c9e <HAL_RCC_ClockConfig+0x10a>
 8000c2a:	4a5e      	ldr	r2, [pc, #376]	; (8000da4 <HAL_RCC_ClockConfig+0x210>)
 8000c2c:	6893      	ldr	r3, [r2, #8]
 8000c2e:	f023 03f0 	bic.w	r3, r3, #240	; 0xf0
 8000c32:	68a1      	ldr	r1, [r4, #8]
 8000c34:	430b      	orrs	r3, r1
 8000c36:	6093      	str	r3, [r2, #8]
 8000c38:	6823      	ldr	r3, [r4, #0]
 8000c3a:	f013 0f01 	tst.w	r3, #1
 8000c3e:	d048      	beq.n	8000cd2 <HAL_RCC_ClockConfig+0x13e>
 8000c40:	6863      	ldr	r3, [r4, #4]
 8000c42:	2b03      	cmp	r3, #3
 8000c44:	d831      	bhi.n	8000caa <HAL_RCC_ClockConfig+0x116>
 8000c46:	6863      	ldr	r3, [r4, #4]
 8000c48:	2b01      	cmp	r3, #1
 8000c4a:	d034      	beq.n	8000cb6 <HAL_RCC_ClockConfig+0x122>
 8000c4c:	1e9a      	subs	r2, r3, #2
 8000c4e:	2a01      	cmp	r2, #1
 8000c50:	d938      	bls.n	8000cc4 <HAL_RCC_ClockConfig+0x130>
 8000c52:	4a54      	ldr	r2, [pc, #336]	; (8000da4 <HAL_RCC_ClockConfig+0x210>)
 8000c54:	6812      	ldr	r2, [r2, #0]
 8000c56:	f012 0f02 	tst.w	r2, #2
 8000c5a:	f000 809c 	beq.w	8000d96 <HAL_RCC_ClockConfig+0x202>
 8000c5e:	4951      	ldr	r1, [pc, #324]	; (8000da4 <HAL_RCC_ClockConfig+0x210>)
 8000c60:	688a      	ldr	r2, [r1, #8]
 8000c62:	f022 0203 	bic.w	r2, r2, #3
 8000c66:	4313      	orrs	r3, r2
 8000c68:	608b      	str	r3, [r1, #8]
 8000c6a:	f7ff fc19 	bl	80004a0 <HAL_GetTick>
 8000c6e:	4606      	mov	r6, r0
 8000c70:	4b4c      	ldr	r3, [pc, #304]	; (8000da4 <HAL_RCC_ClockConfig+0x210>)
 8000c72:	689b      	ldr	r3, [r3, #8]
 8000c74:	f003 030c 	and.w	r3, r3, #12
 8000c78:	6862      	ldr	r2, [r4, #4]
 8000c7a:	ebb3 0f82 	cmp.w	r3, r2, lsl #2
 8000c7e:	d028      	beq.n	8000cd2 <HAL_RCC_ClockConfig+0x13e>
 8000c80:	f7ff fc0e 	bl	80004a0 <HAL_GetTick>
 8000c84:	1b80      	subs	r0, r0, r6
 8000c86:	f241 3388 	movw	r3, #5000	; 0x1388
 8000c8a:	4298      	cmp	r0, r3
 8000c8c:	d9f0      	bls.n	8000c70 <HAL_RCC_ClockConfig+0xdc>
 8000c8e:	2003      	movs	r0, #3
 8000c90:	e070      	b.n	8000d74 <HAL_RCC_ClockConfig+0x1e0>
 8000c92:	2be0      	cmp	r3, #224	; 0xe0
 8000c94:	d0c9      	beq.n	8000c2a <HAL_RCC_ClockConfig+0x96>
 8000c96:	2bf0      	cmp	r3, #240	; 0xf0
 8000c98:	d0c7      	beq.n	8000c2a <HAL_RCC_ClockConfig+0x96>
 8000c9a:	2bd0      	cmp	r3, #208	; 0xd0
 8000c9c:	d0c5      	beq.n	8000c2a <HAL_RCC_ClockConfig+0x96>
 8000c9e:	f240 2175 	movw	r1, #629	; 0x275
 8000ca2:	4841      	ldr	r0, [pc, #260]	; (8000da8 <HAL_RCC_ClockConfig+0x214>)
 8000ca4:	f000 fd88 	bl	80017b8 <assert_failed>
 8000ca8:	e7bf      	b.n	8000c2a <HAL_RCC_ClockConfig+0x96>
 8000caa:	f44f 711f 	mov.w	r1, #636	; 0x27c
 8000cae:	483e      	ldr	r0, [pc, #248]	; (8000da8 <HAL_RCC_ClockConfig+0x214>)
 8000cb0:	f000 fd82 	bl	80017b8 <assert_failed>
 8000cb4:	e7c7      	b.n	8000c46 <HAL_RCC_ClockConfig+0xb2>
 8000cb6:	4a3b      	ldr	r2, [pc, #236]	; (8000da4 <HAL_RCC_ClockConfig+0x210>)
 8000cb8:	6812      	ldr	r2, [r2, #0]
 8000cba:	f412 3f00 	tst.w	r2, #131072	; 0x20000
 8000cbe:	d1ce      	bne.n	8000c5e <HAL_RCC_ClockConfig+0xca>
 8000cc0:	2001      	movs	r0, #1
 8000cc2:	e057      	b.n	8000d74 <HAL_RCC_ClockConfig+0x1e0>
 8000cc4:	4a37      	ldr	r2, [pc, #220]	; (8000da4 <HAL_RCC_ClockConfig+0x210>)
 8000cc6:	6812      	ldr	r2, [r2, #0]
 8000cc8:	f012 7f00 	tst.w	r2, #33554432	; 0x2000000
 8000ccc:	d1c7      	bne.n	8000c5e <HAL_RCC_ClockConfig+0xca>
 8000cce:	2001      	movs	r0, #1
 8000cd0:	e050      	b.n	8000d74 <HAL_RCC_ClockConfig+0x1e0>
 8000cd2:	4b33      	ldr	r3, [pc, #204]	; (8000da0 <HAL_RCC_ClockConfig+0x20c>)
 8000cd4:	681b      	ldr	r3, [r3, #0]
 8000cd6:	f003 030f 	and.w	r3, r3, #15
 8000cda:	42ab      	cmp	r3, r5
 8000cdc:	d907      	bls.n	8000cee <HAL_RCC_ClockConfig+0x15a>
 8000cde:	b2ea      	uxtb	r2, r5
 8000ce0:	4b2f      	ldr	r3, [pc, #188]	; (8000da0 <HAL_RCC_ClockConfig+0x20c>)
 8000ce2:	701a      	strb	r2, [r3, #0]
 8000ce4:	681b      	ldr	r3, [r3, #0]
 8000ce6:	f003 030f 	and.w	r3, r3, #15
 8000cea:	42ab      	cmp	r3, r5
 8000cec:	d155      	bne.n	8000d9a <HAL_RCC_ClockConfig+0x206>
 8000cee:	6823      	ldr	r3, [r4, #0]
 8000cf0:	f013 0f04 	tst.w	r3, #4
 8000cf4:	d014      	beq.n	8000d20 <HAL_RCC_ClockConfig+0x18c>
 8000cf6:	68e3      	ldr	r3, [r4, #12]
 8000cf8:	b15b      	cbz	r3, 8000d12 <HAL_RCC_ClockConfig+0x17e>
 8000cfa:	f5b3 5f80 	cmp.w	r3, #4096	; 0x1000
 8000cfe:	d008      	beq.n	8000d12 <HAL_RCC_ClockConfig+0x17e>
 8000d00:	f5b3 5fa0 	cmp.w	r3, #5120	; 0x1400
 8000d04:	d005      	beq.n	8000d12 <HAL_RCC_ClockConfig+0x17e>
 8000d06:	f5b3 5fc0 	cmp.w	r3, #6144	; 0x1800
 8000d0a:	d002      	beq.n	8000d12 <HAL_RCC_ClockConfig+0x17e>
 8000d0c:	f5b3 5fe0 	cmp.w	r3, #7168	; 0x1c00
 8000d10:	d131      	bne.n	8000d76 <HAL_RCC_ClockConfig+0x1e2>
 8000d12:	4a24      	ldr	r2, [pc, #144]	; (8000da4 <HAL_RCC_ClockConfig+0x210>)
 8000d14:	6893      	ldr	r3, [r2, #8]
 8000d16:	f423 53e0 	bic.w	r3, r3, #7168	; 0x1c00
 8000d1a:	68e1      	ldr	r1, [r4, #12]
 8000d1c:	430b      	orrs	r3, r1
 8000d1e:	6093      	str	r3, [r2, #8]
 8000d20:	6823      	ldr	r3, [r4, #0]
 8000d22:	f013 0f08 	tst.w	r3, #8
 8000d26:	d015      	beq.n	8000d54 <HAL_RCC_ClockConfig+0x1c0>
 8000d28:	6923      	ldr	r3, [r4, #16]
 8000d2a:	b15b      	cbz	r3, 8000d44 <HAL_RCC_ClockConfig+0x1b0>
 8000d2c:	f5b3 5f80 	cmp.w	r3, #4096	; 0x1000
 8000d30:	d008      	beq.n	8000d44 <HAL_RCC_ClockConfig+0x1b0>
 8000d32:	f5b3 5fa0 	cmp.w	r3, #5120	; 0x1400
 8000d36:	d005      	beq.n	8000d44 <HAL_RCC_ClockConfig+0x1b0>
 8000d38:	f5b3 5fc0 	cmp.w	r3, #6144	; 0x1800
 8000d3c:	d002      	beq.n	8000d44 <HAL_RCC_ClockConfig+0x1b0>
 8000d3e:	f5b3 5fe0 	cmp.w	r3, #7168	; 0x1c00
 8000d42:	d11e      	bne.n	8000d82 <HAL_RCC_ClockConfig+0x1ee>
 8000d44:	4a17      	ldr	r2, [pc, #92]	; (8000da4 <HAL_RCC_ClockConfig+0x210>)
 8000d46:	6893      	ldr	r3, [r2, #8]
 8000d48:	f423 4360 	bic.w	r3, r3, #57344	; 0xe000
 8000d4c:	6921      	ldr	r1, [r4, #16]
 8000d4e:	ea43 03c1 	orr.w	r3, r3, r1, lsl #3
 8000d52:	6093      	str	r3, [r2, #8]
 8000d54:	f7ff feca 	bl	8000aec <HAL_RCC_GetSysClockFreq>
 8000d58:	4b12      	ldr	r3, [pc, #72]	; (8000da4 <HAL_RCC_ClockConfig+0x210>)
 8000d5a:	689b      	ldr	r3, [r3, #8]
 8000d5c:	f3c3 1303 	ubfx	r3, r3, #4, #4
 8000d60:	4a12      	ldr	r2, [pc, #72]	; (8000dac <HAL_RCC_ClockConfig+0x218>)
 8000d62:	5cd3      	ldrb	r3, [r2, r3]
 8000d64:	40d8      	lsrs	r0, r3
 8000d66:	4b12      	ldr	r3, [pc, #72]	; (8000db0 <HAL_RCC_ClockConfig+0x21c>)
 8000d68:	6018      	str	r0, [r3, #0]
 8000d6a:	4b12      	ldr	r3, [pc, #72]	; (8000db4 <HAL_RCC_ClockConfig+0x220>)
 8000d6c:	6818      	ldr	r0, [r3, #0]
 8000d6e:	f7ff fb57 	bl	8000420 <HAL_InitTick>
 8000d72:	2000      	movs	r0, #0
 8000d74:	bd70      	pop	{r4, r5, r6, pc}
 8000d76:	f240 21ba 	movw	r1, #698	; 0x2ba
 8000d7a:	480b      	ldr	r0, [pc, #44]	; (8000da8 <HAL_RCC_ClockConfig+0x214>)
 8000d7c:	f000 fd1c 	bl	80017b8 <assert_failed>
 8000d80:	e7c7      	b.n	8000d12 <HAL_RCC_ClockConfig+0x17e>
 8000d82:	f240 21c1 	movw	r1, #705	; 0x2c1
 8000d86:	4808      	ldr	r0, [pc, #32]	; (8000da8 <HAL_RCC_ClockConfig+0x214>)
 8000d88:	f000 fd16 	bl	80017b8 <assert_failed>
 8000d8c:	e7da      	b.n	8000d44 <HAL_RCC_ClockConfig+0x1b0>
 8000d8e:	2001      	movs	r0, #1
 8000d90:	4770      	bx	lr
 8000d92:	2001      	movs	r0, #1
 8000d94:	e7ee      	b.n	8000d74 <HAL_RCC_ClockConfig+0x1e0>
 8000d96:	2001      	movs	r0, #1
 8000d98:	e7ec      	b.n	8000d74 <HAL_RCC_ClockConfig+0x1e0>
 8000d9a:	2001      	movs	r0, #1
 8000d9c:	e7ea      	b.n	8000d74 <HAL_RCC_ClockConfig+0x1e0>
 8000d9e:	bf00      	nop
 8000da0:	40023c00 	andmi	r3, r2, r0, lsl #24
 8000da4:	40023800 	andmi	r3, r2, r0, lsl #16
 8000da8:	080027d0 	stmdaeq	r0, {r4, r6, r7, r8, r9, sl, sp}
 8000dac:	08002948 	stmdaeq	r0, {r3, r6, r8, fp, sp}
 8000db0:	20000014 	andcs	r0, r0, r4, lsl r0
 8000db4:	20000008 	andcs	r0, r0, r8

08000db8 <HAL_RCC_GetHCLKFreq>:
 8000db8:	4b01      	ldr	r3, [pc, #4]	; (8000dc0 <HAL_RCC_GetHCLKFreq+0x8>)
 8000dba:	6818      	ldr	r0, [r3, #0]
 8000dbc:	4770      	bx	lr
 8000dbe:	bf00      	nop
 8000dc0:	20000014 	andcs	r0, r0, r4, lsl r0

08000dc4 <_exit>:
 8000dc4:	e7fe      	b.n	8000dc4 <_exit>
	...

08000dc8 <_sbrk>:
 8000dc8:	b508      	push	{r3, lr}
 8000dca:	4603      	mov	r3, r0
 8000dcc:	4a0c      	ldr	r2, [pc, #48]	; (8000e00 <_sbrk+0x38>)
 8000dce:	6812      	ldr	r2, [r2, #0]
 8000dd0:	b15a      	cbz	r2, 8000dea <_sbrk+0x22>
 8000dd2:	4a0b      	ldr	r2, [pc, #44]	; (8000e00 <_sbrk+0x38>)
 8000dd4:	6810      	ldr	r0, [r2, #0]
 8000dd6:	3303      	adds	r3, #3
 8000dd8:	f023 0303 	bic.w	r3, r3, #3
 8000ddc:	4403      	add	r3, r0
 8000dde:	4a09      	ldr	r2, [pc, #36]	; (8000e04 <_sbrk+0x3c>)
 8000de0:	4293      	cmp	r3, r2
 8000de2:	d806      	bhi.n	8000df2 <_sbrk+0x2a>
 8000de4:	4a06      	ldr	r2, [pc, #24]	; (8000e00 <_sbrk+0x38>)
 8000de6:	6013      	str	r3, [r2, #0]
 8000de8:	bd08      	pop	{r3, pc}
 8000dea:	4a05      	ldr	r2, [pc, #20]	; (8000e00 <_sbrk+0x38>)
 8000dec:	4906      	ldr	r1, [pc, #24]	; (8000e08 <_sbrk+0x40>)
 8000dee:	6011      	str	r1, [r2, #0]
 8000df0:	e7ef      	b.n	8000dd2 <_sbrk+0xa>
 8000df2:	f001 f81d 	bl	8001e30 <__errno>
 8000df6:	230c      	movs	r3, #12
 8000df8:	6003      	str	r3, [r0, #0]
 8000dfa:	f04f 30ff 	mov.w	r0, #4294967295
 8000dfe:	e7f3      	b.n	8000de8 <_sbrk+0x20>
 8000e00:	20000074 	andcs	r0, r0, r4, ror r0
 8000e04:	2000fc00 	andcs	pc, r0, r0, lsl #24
 8000e08:	20000154 	andcs	r0, r0, r4, asr r1

08000e0c <__initialize_args>:
 8000e0c:	2301      	movs	r3, #1
 8000e0e:	6003      	str	r3, [r0, #0]
 8000e10:	4b01      	ldr	r3, [pc, #4]	; (8000e18 <__initialize_args+0xc>)
 8000e12:	600b      	str	r3, [r1, #0]
 8000e14:	4770      	bx	lr
 8000e16:	bf00      	nop
 8000e18:	2000000c 	andcs	r0, r0, ip

08000e1c <_trace_write_semihosting_debug>:
 8000e1c:	e92d 43f0 	stmdb	sp!, {r4, r5, r6, r7, r8, r9, lr}
 8000e20:	b085      	sub	sp, #20
 8000e22:	4604      	mov	r4, r0
 8000e24:	460f      	mov	r7, r1
 8000e26:	5643      	ldrsb	r3, [r0, r1]
 8000e28:	bb3b      	cbnz	r3, 8000e7a <_trace_write_semihosting_debug+0x5e>
 8000e2a:	2504      	movs	r5, #4
 8000e2c:	4628      	mov	r0, r5
 8000e2e:	4621      	mov	r1, r4
 8000e30:	beab      	bkpt	0x00ab
 8000e32:	4605      	mov	r5, r0
 8000e34:	4638      	mov	r0, r7
 8000e36:	b005      	add	sp, #20
 8000e38:	e8bd 83f0 	ldmia.w	sp!, {r4, r5, r6, r7, r8, r9, pc}
 8000e3c:	f914 cb01 	ldrsb.w	ip, [r4], #1
 8000e40:	f103 0210 	add.w	r2, r3, #16
 8000e44:	446a      	add	r2, sp
 8000e46:	f802 cc10 	strb.w	ip, [r2, #-16]
 8000e4a:	3301      	adds	r3, #1
 8000e4c:	42ab      	cmp	r3, r5
 8000e4e:	d3f5      	bcc.n	8000e3c <_trace_write_semihosting_debug+0x20>
 8000e50:	3310      	adds	r3, #16
 8000e52:	446b      	add	r3, sp
 8000e54:	2200      	movs	r2, #0
 8000e56:	f803 2c10 	strb.w	r2, [r3, #-16]
 8000e5a:	f04f 0804 	mov.w	r8, #4
 8000e5e:	46e9      	mov	r9, sp
 8000e60:	4640      	mov	r0, r8
 8000e62:	4649      	mov	r1, r9
 8000e64:	beab      	bkpt	0x00ab
 8000e66:	4680      	mov	r8, r0
 8000e68:	1b76      	subs	r6, r6, r5
 8000e6a:	2e00      	cmp	r6, #0
 8000e6c:	d0e2      	beq.n	8000e34 <_trace_write_semihosting_debug+0x18>
 8000e6e:	4635      	mov	r5, r6
 8000e70:	2e10      	cmp	r6, #16
 8000e72:	bf28      	it	cs
 8000e74:	2510      	movcs	r5, #16
 8000e76:	2300      	movs	r3, #0
 8000e78:	e7e8      	b.n	8000e4c <_trace_write_semihosting_debug+0x30>
 8000e7a:	460e      	mov	r6, r1
 8000e7c:	e7f5      	b.n	8000e6a <_trace_write_semihosting_debug+0x4e>

08000e7e <trace_write>:
 8000e7e:	b508      	push	{r3, lr}
 8000e80:	f7ff ffcc 	bl	8000e1c <_trace_write_semihosting_debug>
 8000e84:	bd08      	pop	{r3, pc}
	...

08000e88 <trace_printf>:
 8000e88:	b40f      	push	{r0, r1, r2, r3}
 8000e8a:	b500      	push	{lr}
 8000e8c:	b083      	sub	sp, #12
 8000e8e:	ab04      	add	r3, sp, #16
 8000e90:	f853 2b04 	ldr.w	r2, [r3], #4
 8000e94:	9301      	str	r3, [sp, #4]
 8000e96:	2180      	movs	r1, #128	; 0x80
 8000e98:	4807      	ldr	r0, [pc, #28]	; (8000eb8 <trace_printf+0x30>)
 8000e9a:	f000 ffbb 	bl	8001e14 <vsniprintf>
 8000e9e:	2800      	cmp	r0, #0
 8000ea0:	dc04      	bgt.n	8000eac <trace_printf+0x24>
 8000ea2:	b003      	add	sp, #12
 8000ea4:	f85d eb04 	ldr.w	lr, [sp], #4
 8000ea8:	b004      	add	sp, #16
 8000eaa:	4770      	bx	lr
 8000eac:	4601      	mov	r1, r0
 8000eae:	4802      	ldr	r0, [pc, #8]	; (8000eb8 <trace_printf+0x30>)
 8000eb0:	f7ff ffe5 	bl	8000e7e <trace_write>
 8000eb4:	e7f5      	b.n	8000ea2 <trace_printf+0x1a>
 8000eb6:	bf00      	nop
 8000eb8:	20000080 	andcs	r0, r0, r0, lsl #1

08000ebc <dumpExceptionStack>:
 8000ebc:	b5f8      	push	{r3, r4, r5, r6, r7, lr}
 8000ebe:	4604      	mov	r4, r0
 8000ec0:	460d      	mov	r5, r1
 8000ec2:	4617      	mov	r7, r2
 8000ec4:	461e      	mov	r6, r3
 8000ec6:	4827      	ldr	r0, [pc, #156]	; (8000f64 <dumpExceptionStack+0xa8>)
 8000ec8:	f7ff ffde 	bl	8000e88 <trace_printf>
 8000ecc:	6821      	ldr	r1, [r4, #0]
 8000ece:	4826      	ldr	r0, [pc, #152]	; (8000f68 <dumpExceptionStack+0xac>)
 8000ed0:	f7ff ffda 	bl	8000e88 <trace_printf>
 8000ed4:	6861      	ldr	r1, [r4, #4]
 8000ed6:	4825      	ldr	r0, [pc, #148]	; (8000f6c <dumpExceptionStack+0xb0>)
 8000ed8:	f7ff ffd6 	bl	8000e88 <trace_printf>
 8000edc:	68a1      	ldr	r1, [r4, #8]
 8000ede:	4824      	ldr	r0, [pc, #144]	; (8000f70 <dumpExceptionStack+0xb4>)
 8000ee0:	f7ff ffd2 	bl	8000e88 <trace_printf>
 8000ee4:	68e1      	ldr	r1, [r4, #12]
 8000ee6:	4823      	ldr	r0, [pc, #140]	; (8000f74 <dumpExceptionStack+0xb8>)
 8000ee8:	f7ff ffce 	bl	8000e88 <trace_printf>
 8000eec:	6921      	ldr	r1, [r4, #16]
 8000eee:	4822      	ldr	r0, [pc, #136]	; (8000f78 <dumpExceptionStack+0xbc>)
 8000ef0:	f7ff ffca 	bl	8000e88 <trace_printf>
 8000ef4:	6961      	ldr	r1, [r4, #20]
 8000ef6:	4821      	ldr	r0, [pc, #132]	; (8000f7c <dumpExceptionStack+0xc0>)
 8000ef8:	f7ff ffc6 	bl	8000e88 <trace_printf>
 8000efc:	69a1      	ldr	r1, [r4, #24]
 8000efe:	4820      	ldr	r0, [pc, #128]	; (8000f80 <dumpExceptionStack+0xc4>)
 8000f00:	f7ff ffc2 	bl	8000e88 <trace_printf>
 8000f04:	69e1      	ldr	r1, [r4, #28]
 8000f06:	481f      	ldr	r0, [pc, #124]	; (8000f84 <dumpExceptionStack+0xc8>)
 8000f08:	f7ff ffbe 	bl	8000e88 <trace_printf>
 8000f0c:	481e      	ldr	r0, [pc, #120]	; (8000f88 <dumpExceptionStack+0xcc>)
 8000f0e:	f7ff ffbb 	bl	8000e88 <trace_printf>
 8000f12:	4629      	mov	r1, r5
 8000f14:	481d      	ldr	r0, [pc, #116]	; (8000f8c <dumpExceptionStack+0xd0>)
 8000f16:	f7ff ffb7 	bl	8000e88 <trace_printf>
 8000f1a:	4c1d      	ldr	r4, [pc, #116]	; (8000f90 <dumpExceptionStack+0xd4>)
 8000f1c:	6ae1      	ldr	r1, [r4, #44]	; 0x2c
 8000f1e:	481d      	ldr	r0, [pc, #116]	; (8000f94 <dumpExceptionStack+0xd8>)
 8000f20:	f7ff ffb2 	bl	8000e88 <trace_printf>
 8000f24:	6b21      	ldr	r1, [r4, #48]	; 0x30
 8000f26:	481c      	ldr	r0, [pc, #112]	; (8000f98 <dumpExceptionStack+0xdc>)
 8000f28:	f7ff ffae 	bl	8000e88 <trace_printf>
 8000f2c:	6be1      	ldr	r1, [r4, #60]	; 0x3c
 8000f2e:	481b      	ldr	r0, [pc, #108]	; (8000f9c <dumpExceptionStack+0xe0>)
 8000f30:	f7ff ffaa 	bl	8000e88 <trace_printf>
 8000f34:	f015 0f80 	tst.w	r5, #128	; 0x80
 8000f38:	d10a      	bne.n	8000f50 <dumpExceptionStack+0x94>
 8000f3a:	f415 4f00 	tst.w	r5, #32768	; 0x8000
 8000f3e:	d10c      	bne.n	8000f5a <dumpExceptionStack+0x9e>
 8000f40:	4817      	ldr	r0, [pc, #92]	; (8000fa0 <dumpExceptionStack+0xe4>)
 8000f42:	f7ff ffa1 	bl	8000e88 <trace_printf>
 8000f46:	9906      	ldr	r1, [sp, #24]
 8000f48:	4816      	ldr	r0, [pc, #88]	; (8000fa4 <dumpExceptionStack+0xe8>)
 8000f4a:	f7ff ff9d 	bl	8000e88 <trace_printf>
 8000f4e:	bdf8      	pop	{r3, r4, r5, r6, r7, pc}
 8000f50:	4639      	mov	r1, r7
 8000f52:	4815      	ldr	r0, [pc, #84]	; (8000fa8 <dumpExceptionStack+0xec>)
 8000f54:	f7ff ff98 	bl	8000e88 <trace_printf>
 8000f58:	e7ef      	b.n	8000f3a <dumpExceptionStack+0x7e>
 8000f5a:	4631      	mov	r1, r6
 8000f5c:	4813      	ldr	r0, [pc, #76]	; (8000fac <dumpExceptionStack+0xf0>)
 8000f5e:	f7ff ff93 	bl	8000e88 <trace_printf>
 8000f62:	e7ed      	b.n	8000f40 <dumpExceptionStack+0x84>
 8000f64:	08002800 	stmdaeq	r0, {fp, sp}
 8000f68:	08002810 	stmdaeq	r0, {r4, fp, sp}
 8000f6c:	08002820 	stmdaeq	r0, {r5, fp, sp}
 8000f70:	08002830 	stmdaeq	r0, {r4, r5, fp, sp}
 8000f74:	08002840 	stmdaeq	r0, {r6, fp, sp}
 8000f78:	08002850 	stmdaeq	r0, {r4, r6, fp, sp}
 8000f7c:	08002860 	stmdaeq	r0, {r5, r6, fp, sp}
 8000f80:	08002870 	stmdaeq	r0, {r4, r5, r6, fp, sp}
 8000f84:	08002880 	stmdaeq	r0, {r7, fp, sp}
 8000f88:	08002890 	stmdaeq	r0, {r4, r7, fp, sp}
 8000f8c:	0800289c 	stmdaeq	r0, {r2, r3, r4, r7, fp, sp}
 8000f90:	e000ed00 	and	lr, r0, r0, lsl #26
 8000f94:	080028ac 	stmdaeq	r0, {r2, r3, r5, r7, fp, sp}
 8000f98:	080028bc 	stmdaeq	r0, {r2, r3, r4, r5, r7, fp, sp}
 8000f9c:	080028cc 	stmdaeq	r0, {r2, r3, r6, r7, fp, sp}
 8000fa0:	080028fc 	stmdaeq	r0, {r2, r3, r4, r5, r6, r7, fp, sp}
 8000fa4:	08002904 	stmdaeq	r0, {r2, r8, fp, sp}
 8000fa8:	080028dc 	stmdaeq	r0, {r2, r3, r4, r6, r7, fp, sp}
 8000fac:	080028ec 	stmdaeq	r0, {r2, r3, r5, r6, r7, fp, sp}

08000fb0 <isSemihosting>:
 8000fb0:	6983      	ldr	r3, [r0, #24]
 8000fb2:	881a      	ldrh	r2, [r3, #0]
 8000fb4:	428a      	cmp	r2, r1
 8000fb6:	d001      	beq.n	8000fbc <isSemihosting+0xc>
 8000fb8:	2000      	movs	r0, #0
 8000fba:	4770      	bx	lr
 8000fbc:	6802      	ldr	r2, [r0, #0]
 8000fbe:	3a03      	subs	r2, #3
 8000fc0:	2a01      	cmp	r2, #1
 8000fc2:	d901      	bls.n	8000fc8 <isSemihosting+0x18>
 8000fc4:	2000      	movs	r0, #0
 8000fc6:	4770      	bx	lr
 8000fc8:	3302      	adds	r3, #2
 8000fca:	6183      	str	r3, [r0, #24]
 8000fcc:	2001      	movs	r0, #1
 8000fce:	4770      	bx	lr

08000fd0 <__initialize_hardware_early>:
 8000fd0:	b508      	push	{r3, lr}
 8000fd2:	f000 f809 	bl	8000fe8 <SystemInit>
 8000fd6:	4a02      	ldr	r2, [pc, #8]	; (8000fe0 <__initialize_hardware_early+0x10>)
 8000fd8:	4b02      	ldr	r3, [pc, #8]	; (8000fe4 <__initialize_hardware_early+0x14>)
 8000fda:	609a      	str	r2, [r3, #8]
 8000fdc:	bd08      	pop	{r3, pc}
 8000fde:	bf00      	nop
 8000fe0:	08000000 	stmdaeq	r0, {}	; <UNPREDICTABLE>
 8000fe4:	e000ed00 	and	lr, r0, r0, lsl #26

08000fe8 <SystemInit>:
 8000fe8:	4b02      	ldr	r3, [pc, #8]	; (8000ff4 <SystemInit+0xc>)
 8000fea:	f04f 6200 	mov.w	r2, #134217728	; 0x8000000
 8000fee:	609a      	str	r2, [r3, #8]
 8000ff0:	4770      	bx	lr
 8000ff2:	bf00      	nop
 8000ff4:	e000ed00 	and	lr, r0, r0, lsl #26

08000ff8 <SystemCoreClockUpdate>:
 8000ff8:	4b22      	ldr	r3, [pc, #136]	; (8001084 <SystemCoreClockUpdate+0x8c>)
 8000ffa:	689b      	ldr	r3, [r3, #8]
 8000ffc:	f003 030c 	and.w	r3, r3, #12
 8001000:	2b04      	cmp	r3, #4
 8001002:	d014      	beq.n	800102e <SystemCoreClockUpdate+0x36>
 8001004:	2b08      	cmp	r3, #8
 8001006:	d016      	beq.n	8001036 <SystemCoreClockUpdate+0x3e>
 8001008:	b11b      	cbz	r3, 8001012 <SystemCoreClockUpdate+0x1a>
 800100a:	4b1f      	ldr	r3, [pc, #124]	; (8001088 <SystemCoreClockUpdate+0x90>)
 800100c:	4a1f      	ldr	r2, [pc, #124]	; (800108c <SystemCoreClockUpdate+0x94>)
 800100e:	601a      	str	r2, [r3, #0]
 8001010:	e002      	b.n	8001018 <SystemCoreClockUpdate+0x20>
 8001012:	4b1d      	ldr	r3, [pc, #116]	; (8001088 <SystemCoreClockUpdate+0x90>)
 8001014:	4a1d      	ldr	r2, [pc, #116]	; (800108c <SystemCoreClockUpdate+0x94>)
 8001016:	601a      	str	r2, [r3, #0]
 8001018:	4b1a      	ldr	r3, [pc, #104]	; (8001084 <SystemCoreClockUpdate+0x8c>)
 800101a:	689b      	ldr	r3, [r3, #8]
 800101c:	f3c3 1303 	ubfx	r3, r3, #4, #4
 8001020:	4a1b      	ldr	r2, [pc, #108]	; (8001090 <SystemCoreClockUpdate+0x98>)
 8001022:	5cd1      	ldrb	r1, [r2, r3]
 8001024:	4a18      	ldr	r2, [pc, #96]	; (8001088 <SystemCoreClockUpdate+0x90>)
 8001026:	6813      	ldr	r3, [r2, #0]
 8001028:	40cb      	lsrs	r3, r1
 800102a:	6013      	str	r3, [r2, #0]
 800102c:	4770      	bx	lr
 800102e:	4b16      	ldr	r3, [pc, #88]	; (8001088 <SystemCoreClockUpdate+0x90>)
 8001030:	4a18      	ldr	r2, [pc, #96]	; (8001094 <SystemCoreClockUpdate+0x9c>)
 8001032:	601a      	str	r2, [r3, #0]
 8001034:	e7f0      	b.n	8001018 <SystemCoreClockUpdate+0x20>
 8001036:	4b13      	ldr	r3, [pc, #76]	; (8001084 <SystemCoreClockUpdate+0x8c>)
 8001038:	6859      	ldr	r1, [r3, #4]
 800103a:	685a      	ldr	r2, [r3, #4]
 800103c:	f002 023f 	and.w	r2, r2, #63	; 0x3f
 8001040:	f411 0f80 	tst.w	r1, #4194304	; 0x400000
 8001044:	d013      	beq.n	800106e <SystemCoreClockUpdate+0x76>
 8001046:	4b13      	ldr	r3, [pc, #76]	; (8001094 <SystemCoreClockUpdate+0x9c>)
 8001048:	fbb3 f3f2 	udiv	r3, r3, r2
 800104c:	4a0d      	ldr	r2, [pc, #52]	; (8001084 <SystemCoreClockUpdate+0x8c>)
 800104e:	6852      	ldr	r2, [r2, #4]
 8001050:	f3c2 1288 	ubfx	r2, r2, #6, #9
 8001054:	fb02 f303 	mul.w	r3, r2, r3
 8001058:	4a0a      	ldr	r2, [pc, #40]	; (8001084 <SystemCoreClockUpdate+0x8c>)
 800105a:	6852      	ldr	r2, [r2, #4]
 800105c:	f3c2 4201 	ubfx	r2, r2, #16, #2
 8001060:	3201      	adds	r2, #1
 8001062:	0052      	lsls	r2, r2, #1
 8001064:	fbb3 f3f2 	udiv	r3, r3, r2
 8001068:	4a07      	ldr	r2, [pc, #28]	; (8001088 <SystemCoreClockUpdate+0x90>)
 800106a:	6013      	str	r3, [r2, #0]
 800106c:	e7d4      	b.n	8001018 <SystemCoreClockUpdate+0x20>
 800106e:	4b07      	ldr	r3, [pc, #28]	; (800108c <SystemCoreClockUpdate+0x94>)
 8001070:	fbb3 f3f2 	udiv	r3, r3, r2
 8001074:	4a03      	ldr	r2, [pc, #12]	; (8001084 <SystemCoreClockUpdate+0x8c>)
 8001076:	6852      	ldr	r2, [r2, #4]
 8001078:	f3c2 1288 	ubfx	r2, r2, #6, #9
 800107c:	fb02 f303 	mul.w	r3, r2, r3
 8001080:	e7ea      	b.n	8001058 <SystemCoreClockUpdate+0x60>
 8001082:	bf00      	nop
 8001084:	40023800 	andmi	r3, r2, r0, lsl #16
 8001088:	20000014 	andcs	r0, r0, r4, lsl r0
 800108c:	00f42400 	rscseq	r2, r4, r0, lsl #8
 8001090:	08002948 	stmdaeq	r0, {r3, r6, r8, fp, sp}
 8001094:	017d7840 	cmneq	sp, r0, asr #16

08001098 <MEXTI_voidInterruptSetPort>:
 8001098:	b410      	push	{r4}
 800109a:	0882      	lsrs	r2, r0, #2
 800109c:	4c09      	ldr	r4, [pc, #36]	; (80010c4 <MEXTI_voidInterruptSetPort+0x2c>)
 800109e:	3202      	adds	r2, #2
 80010a0:	f854 3022 	ldr.w	r3, [r4, r2, lsl #2]
 80010a4:	f000 0003 	and.w	r0, r0, #3
 80010a8:	0080      	lsls	r0, r0, #2
 80010aa:	f04f 0c0f 	mov.w	ip, #15
 80010ae:	fa0c fc00 	lsl.w	ip, ip, r0
 80010b2:	ea23 030c 	bic.w	r3, r3, ip
 80010b6:	4081      	lsls	r1, r0
 80010b8:	430b      	orrs	r3, r1
 80010ba:	f844 3022 	str.w	r3, [r4, r2, lsl #2]
 80010be:	bc10      	pop	{r4}
 80010c0:	4770      	bx	lr
 80010c2:	bf00      	nop
 80010c4:	40013800 	andmi	r3, r1, r0, lsl #16

080010c8 <MEXTI_voidInterruptEnableDisable>:
 80010c8:	b111      	cbz	r1, 80010d0 <MEXTI_voidInterruptEnableDisable+0x8>
 80010ca:	2901      	cmp	r1, #1
 80010cc:	d007      	beq.n	80010de <MEXTI_voidInterruptEnableDisable+0x16>
 80010ce:	4770      	bx	lr
 80010d0:	4907      	ldr	r1, [pc, #28]	; (80010f0 <MEXTI_voidInterruptEnableDisable+0x28>)
 80010d2:	680b      	ldr	r3, [r1, #0]
 80010d4:	2201      	movs	r2, #1
 80010d6:	4082      	lsls	r2, r0
 80010d8:	4313      	orrs	r3, r2
 80010da:	600b      	str	r3, [r1, #0]
 80010dc:	4770      	bx	lr
 80010de:	4904      	ldr	r1, [pc, #16]	; (80010f0 <MEXTI_voidInterruptEnableDisable+0x28>)
 80010e0:	680b      	ldr	r3, [r1, #0]
 80010e2:	2201      	movs	r2, #1
 80010e4:	4082      	lsls	r2, r0
 80010e6:	ea23 0302 	bic.w	r3, r3, r2
 80010ea:	600b      	str	r3, [r1, #0]
 80010ec:	4770      	bx	lr
 80010ee:	bf00      	nop
 80010f0:	40013c00 	andmi	r3, r1, r0, lsl #24

080010f4 <MEXTI_voidInterruptTrigger>:
 80010f4:	2901      	cmp	r1, #1
 80010f6:	d00a      	beq.n	800110e <MEXTI_voidInterruptTrigger+0x1a>
 80010f8:	2902      	cmp	r1, #2
 80010fa:	d00f      	beq.n	800111c <MEXTI_voidInterruptTrigger+0x28>
 80010fc:	b101      	cbz	r1, 8001100 <MEXTI_voidInterruptTrigger+0xc>
 80010fe:	4770      	bx	lr
 8001100:	490b      	ldr	r1, [pc, #44]	; (8001130 <MEXTI_voidInterruptTrigger+0x3c>)
 8001102:	688b      	ldr	r3, [r1, #8]
 8001104:	2201      	movs	r2, #1
 8001106:	4082      	lsls	r2, r0
 8001108:	4313      	orrs	r3, r2
 800110a:	608b      	str	r3, [r1, #8]
 800110c:	4770      	bx	lr
 800110e:	4908      	ldr	r1, [pc, #32]	; (8001130 <MEXTI_voidInterruptTrigger+0x3c>)
 8001110:	68cb      	ldr	r3, [r1, #12]
 8001112:	2201      	movs	r2, #1
 8001114:	4082      	lsls	r2, r0
 8001116:	4313      	orrs	r3, r2
 8001118:	60cb      	str	r3, [r1, #12]
 800111a:	4770      	bx	lr
 800111c:	4a04      	ldr	r2, [pc, #16]	; (8001130 <MEXTI_voidInterruptTrigger+0x3c>)
 800111e:	6891      	ldr	r1, [r2, #8]
 8001120:	2301      	movs	r3, #1
 8001122:	4083      	lsls	r3, r0
 8001124:	4319      	orrs	r1, r3
 8001126:	6091      	str	r1, [r2, #8]
 8001128:	68d1      	ldr	r1, [r2, #12]
 800112a:	430b      	orrs	r3, r1
 800112c:	60d3      	str	r3, [r2, #12]
 800112e:	e7e6      	b.n	80010fe <MEXTI_voidInterruptTrigger+0xa>
 8001130:	40013c00 	andmi	r3, r1, r0, lsl #24

08001134 <MEXTI_voidSetCallBack>:
 8001134:	280f      	cmp	r0, #15
 8001136:	d802      	bhi.n	800113e <MEXTI_voidSetCallBack+0xa>
 8001138:	4b01      	ldr	r3, [pc, #4]	; (8001140 <MEXTI_voidSetCallBack+0xc>)
 800113a:	f843 1020 	str.w	r1, [r3, r0, lsl #2]
 800113e:	4770      	bx	lr
 8001140:	20000100 	andcs	r0, r0, r0, lsl #2

08001144 <EXTI0_IRQHandler>:
 8001144:	b508      	push	{r3, lr}
 8001146:	4b05      	ldr	r3, [pc, #20]	; (800115c <EXTI0_IRQHandler+0x18>)
 8001148:	681b      	ldr	r3, [r3, #0]
 800114a:	b103      	cbz	r3, 800114e <EXTI0_IRQHandler+0xa>
 800114c:	4798      	blx	r3
 800114e:	4a04      	ldr	r2, [pc, #16]	; (8001160 <EXTI0_IRQHandler+0x1c>)
 8001150:	6953      	ldr	r3, [r2, #20]
 8001152:	f043 0301 	orr.w	r3, r3, #1
 8001156:	6153      	str	r3, [r2, #20]
 8001158:	bd08      	pop	{r3, pc}
 800115a:	bf00      	nop
 800115c:	20000100 	andcs	r0, r0, r0, lsl #2
 8001160:	40013c00 	andmi	r3, r1, r0, lsl #24

08001164 <EXTI1_IRQHandler>:
 8001164:	b508      	push	{r3, lr}
 8001166:	4b05      	ldr	r3, [pc, #20]	; (800117c <EXTI1_IRQHandler+0x18>)
 8001168:	685b      	ldr	r3, [r3, #4]
 800116a:	b103      	cbz	r3, 800116e <EXTI1_IRQHandler+0xa>
 800116c:	4798      	blx	r3
 800116e:	4a04      	ldr	r2, [pc, #16]	; (8001180 <EXTI1_IRQHandler+0x1c>)
 8001170:	6953      	ldr	r3, [r2, #20]
 8001172:	f043 0302 	orr.w	r3, r3, #2
 8001176:	6153      	str	r3, [r2, #20]
 8001178:	bd08      	pop	{r3, pc}
 800117a:	bf00      	nop
 800117c:	20000100 	andcs	r0, r0, r0, lsl #2
 8001180:	40013c00 	andmi	r3, r1, r0, lsl #24

08001184 <EXTI2_IRQHandler>:
 8001184:	b508      	push	{r3, lr}
 8001186:	4b05      	ldr	r3, [pc, #20]	; (800119c <EXTI2_IRQHandler+0x18>)
 8001188:	689b      	ldr	r3, [r3, #8]
 800118a:	b103      	cbz	r3, 800118e <EXTI2_IRQHandler+0xa>
 800118c:	4798      	blx	r3
 800118e:	4a04      	ldr	r2, [pc, #16]	; (80011a0 <EXTI2_IRQHandler+0x1c>)
 8001190:	6953      	ldr	r3, [r2, #20]
 8001192:	f043 0304 	orr.w	r3, r3, #4
 8001196:	6153      	str	r3, [r2, #20]
 8001198:	bd08      	pop	{r3, pc}
 800119a:	bf00      	nop
 800119c:	20000100 	andcs	r0, r0, r0, lsl #2
 80011a0:	40013c00 	andmi	r3, r1, r0, lsl #24

080011a4 <EXTI3_IRQHandler>:
 80011a4:	b508      	push	{r3, lr}
 80011a6:	4b05      	ldr	r3, [pc, #20]	; (80011bc <EXTI3_IRQHandler+0x18>)
 80011a8:	68db      	ldr	r3, [r3, #12]
 80011aa:	b103      	cbz	r3, 80011ae <EXTI3_IRQHandler+0xa>
 80011ac:	4798      	blx	r3
 80011ae:	4a04      	ldr	r2, [pc, #16]	; (80011c0 <EXTI3_IRQHandler+0x1c>)
 80011b0:	6953      	ldr	r3, [r2, #20]
 80011b2:	f043 0308 	orr.w	r3, r3, #8
 80011b6:	6153      	str	r3, [r2, #20]
 80011b8:	bd08      	pop	{r3, pc}
 80011ba:	bf00      	nop
 80011bc:	20000100 	andcs	r0, r0, r0, lsl #2
 80011c0:	40013c00 	andmi	r3, r1, r0, lsl #24

080011c4 <EXTI4_IRQHandler>:
 80011c4:	b508      	push	{r3, lr}
 80011c6:	4b05      	ldr	r3, [pc, #20]	; (80011dc <EXTI4_IRQHandler+0x18>)
 80011c8:	691b      	ldr	r3, [r3, #16]
 80011ca:	b103      	cbz	r3, 80011ce <EXTI4_IRQHandler+0xa>
 80011cc:	4798      	blx	r3
 80011ce:	4a04      	ldr	r2, [pc, #16]	; (80011e0 <EXTI4_IRQHandler+0x1c>)
 80011d0:	6953      	ldr	r3, [r2, #20]
 80011d2:	f043 0310 	orr.w	r3, r3, #16
 80011d6:	6153      	str	r3, [r2, #20]
 80011d8:	bd08      	pop	{r3, pc}
 80011da:	bf00      	nop
 80011dc:	20000100 	andcs	r0, r0, r0, lsl #2
 80011e0:	40013c00 	andmi	r3, r1, r0, lsl #24

080011e4 <EXTI9_5_IRQHandler>:
 80011e4:	b508      	push	{r3, lr}
 80011e6:	4b24      	ldr	r3, [pc, #144]	; (8001278 <EXTI9_5_IRQHandler+0x94>)
 80011e8:	695b      	ldr	r3, [r3, #20]
 80011ea:	f013 0f20 	tst.w	r3, #32
 80011ee:	d033      	beq.n	8001258 <EXTI9_5_IRQHandler+0x74>
 80011f0:	4b22      	ldr	r3, [pc, #136]	; (800127c <EXTI9_5_IRQHandler+0x98>)
 80011f2:	695b      	ldr	r3, [r3, #20]
 80011f4:	b12b      	cbz	r3, 8001202 <EXTI9_5_IRQHandler+0x1e>
 80011f6:	4798      	blx	r3
 80011f8:	4a1f      	ldr	r2, [pc, #124]	; (8001278 <EXTI9_5_IRQHandler+0x94>)
 80011fa:	6953      	ldr	r3, [r2, #20]
 80011fc:	f043 0320 	orr.w	r3, r3, #32
 8001200:	6153      	str	r3, [r2, #20]
 8001202:	4b1d      	ldr	r3, [pc, #116]	; (8001278 <EXTI9_5_IRQHandler+0x94>)
 8001204:	695b      	ldr	r3, [r3, #20]
 8001206:	f013 0f80 	tst.w	r3, #128	; 0x80
 800120a:	d008      	beq.n	800121e <EXTI9_5_IRQHandler+0x3a>
 800120c:	4b1b      	ldr	r3, [pc, #108]	; (800127c <EXTI9_5_IRQHandler+0x98>)
 800120e:	69db      	ldr	r3, [r3, #28]
 8001210:	b12b      	cbz	r3, 800121e <EXTI9_5_IRQHandler+0x3a>
 8001212:	4798      	blx	r3
 8001214:	4a18      	ldr	r2, [pc, #96]	; (8001278 <EXTI9_5_IRQHandler+0x94>)
 8001216:	6953      	ldr	r3, [r2, #20]
 8001218:	f043 0380 	orr.w	r3, r3, #128	; 0x80
 800121c:	6153      	str	r3, [r2, #20]
 800121e:	4b16      	ldr	r3, [pc, #88]	; (8001278 <EXTI9_5_IRQHandler+0x94>)
 8001220:	695b      	ldr	r3, [r3, #20]
 8001222:	f413 7f80 	tst.w	r3, #256	; 0x100
 8001226:	d008      	beq.n	800123a <EXTI9_5_IRQHandler+0x56>
 8001228:	4b14      	ldr	r3, [pc, #80]	; (800127c <EXTI9_5_IRQHandler+0x98>)
 800122a:	6a1b      	ldr	r3, [r3, #32]
 800122c:	b12b      	cbz	r3, 800123a <EXTI9_5_IRQHandler+0x56>
 800122e:	4798      	blx	r3
 8001230:	4a11      	ldr	r2, [pc, #68]	; (8001278 <EXTI9_5_IRQHandler+0x94>)
 8001232:	6953      	ldr	r3, [r2, #20]
 8001234:	f043 0320 	orr.w	r3, r3, #32
 8001238:	6153      	str	r3, [r2, #20]
 800123a:	4b0f      	ldr	r3, [pc, #60]	; (8001278 <EXTI9_5_IRQHandler+0x94>)
 800123c:	695b      	ldr	r3, [r3, #20]
 800123e:	f413 7f00 	tst.w	r3, #512	; 0x200
 8001242:	d008      	beq.n	8001256 <EXTI9_5_IRQHandler+0x72>
 8001244:	4b0d      	ldr	r3, [pc, #52]	; (800127c <EXTI9_5_IRQHandler+0x98>)
 8001246:	6a5b      	ldr	r3, [r3, #36]	; 0x24
 8001248:	b12b      	cbz	r3, 8001256 <EXTI9_5_IRQHandler+0x72>
 800124a:	4798      	blx	r3
 800124c:	4a0a      	ldr	r2, [pc, #40]	; (8001278 <EXTI9_5_IRQHandler+0x94>)
 800124e:	6953      	ldr	r3, [r2, #20]
 8001250:	f443 7300 	orr.w	r3, r3, #512	; 0x200
 8001254:	6153      	str	r3, [r2, #20]
 8001256:	bd08      	pop	{r3, pc}
 8001258:	4b07      	ldr	r3, [pc, #28]	; (8001278 <EXTI9_5_IRQHandler+0x94>)
 800125a:	695b      	ldr	r3, [r3, #20]
 800125c:	f013 0f40 	tst.w	r3, #64	; 0x40
 8001260:	d0cf      	beq.n	8001202 <EXTI9_5_IRQHandler+0x1e>
 8001262:	4b06      	ldr	r3, [pc, #24]	; (800127c <EXTI9_5_IRQHandler+0x98>)
 8001264:	699b      	ldr	r3, [r3, #24]
 8001266:	2b00      	cmp	r3, #0
 8001268:	d0cb      	beq.n	8001202 <EXTI9_5_IRQHandler+0x1e>
 800126a:	4798      	blx	r3
 800126c:	4a02      	ldr	r2, [pc, #8]	; (8001278 <EXTI9_5_IRQHandler+0x94>)
 800126e:	6953      	ldr	r3, [r2, #20]
 8001270:	f043 0340 	orr.w	r3, r3, #64	; 0x40
 8001274:	6153      	str	r3, [r2, #20]
 8001276:	e7c4      	b.n	8001202 <EXTI9_5_IRQHandler+0x1e>
 8001278:	40013c00 	andmi	r3, r1, r0, lsl #24
 800127c:	20000100 	andcs	r0, r0, r0, lsl #2

08001280 <EXTI15_10_IRQHandler>:
 8001280:	b508      	push	{r3, lr}
 8001282:	4b2b      	ldr	r3, [pc, #172]	; (8001330 <EXTI15_10_IRQHandler+0xb0>)
 8001284:	695b      	ldr	r3, [r3, #20]
 8001286:	f413 6f80 	tst.w	r3, #1024	; 0x400
 800128a:	d041      	beq.n	8001310 <EXTI15_10_IRQHandler+0x90>
 800128c:	4b29      	ldr	r3, [pc, #164]	; (8001334 <EXTI15_10_IRQHandler+0xb4>)
 800128e:	6a9b      	ldr	r3, [r3, #40]	; 0x28
 8001290:	b12b      	cbz	r3, 800129e <EXTI15_10_IRQHandler+0x1e>
 8001292:	4798      	blx	r3
 8001294:	4a26      	ldr	r2, [pc, #152]	; (8001330 <EXTI15_10_IRQHandler+0xb0>)
 8001296:	6953      	ldr	r3, [r2, #20]
 8001298:	f443 6380 	orr.w	r3, r3, #1024	; 0x400
 800129c:	6153      	str	r3, [r2, #20]
 800129e:	4b24      	ldr	r3, [pc, #144]	; (8001330 <EXTI15_10_IRQHandler+0xb0>)
 80012a0:	695b      	ldr	r3, [r3, #20]
 80012a2:	f413 5f80 	tst.w	r3, #4096	; 0x1000
 80012a6:	d008      	beq.n	80012ba <EXTI15_10_IRQHandler+0x3a>
 80012a8:	4b22      	ldr	r3, [pc, #136]	; (8001334 <EXTI15_10_IRQHandler+0xb4>)
 80012aa:	6b1b      	ldr	r3, [r3, #48]	; 0x30
 80012ac:	b12b      	cbz	r3, 80012ba <EXTI15_10_IRQHandler+0x3a>
 80012ae:	4798      	blx	r3
 80012b0:	4a1f      	ldr	r2, [pc, #124]	; (8001330 <EXTI15_10_IRQHandler+0xb0>)
 80012b2:	6953      	ldr	r3, [r2, #20]
 80012b4:	f443 5380 	orr.w	r3, r3, #4096	; 0x1000
 80012b8:	6153      	str	r3, [r2, #20]
 80012ba:	4b1d      	ldr	r3, [pc, #116]	; (8001330 <EXTI15_10_IRQHandler+0xb0>)
 80012bc:	695b      	ldr	r3, [r3, #20]
 80012be:	f413 5f00 	tst.w	r3, #8192	; 0x2000
 80012c2:	d008      	beq.n	80012d6 <EXTI15_10_IRQHandler+0x56>
 80012c4:	4b1b      	ldr	r3, [pc, #108]	; (8001334 <EXTI15_10_IRQHandler+0xb4>)
 80012c6:	6b5b      	ldr	r3, [r3, #52]	; 0x34
 80012c8:	b12b      	cbz	r3, 80012d6 <EXTI15_10_IRQHandler+0x56>
 80012ca:	4798      	blx	r3
 80012cc:	4a18      	ldr	r2, [pc, #96]	; (8001330 <EXTI15_10_IRQHandler+0xb0>)
 80012ce:	6953      	ldr	r3, [r2, #20]
 80012d0:	f443 5300 	orr.w	r3, r3, #8192	; 0x2000
 80012d4:	6153      	str	r3, [r2, #20]
 80012d6:	4b16      	ldr	r3, [pc, #88]	; (8001330 <EXTI15_10_IRQHandler+0xb0>)
 80012d8:	695b      	ldr	r3, [r3, #20]
 80012da:	f413 4f80 	tst.w	r3, #16384	; 0x4000
 80012de:	d008      	beq.n	80012f2 <EXTI15_10_IRQHandler+0x72>
 80012e0:	4b14      	ldr	r3, [pc, #80]	; (8001334 <EXTI15_10_IRQHandler+0xb4>)
 80012e2:	6b9b      	ldr	r3, [r3, #56]	; 0x38
 80012e4:	b12b      	cbz	r3, 80012f2 <EXTI15_10_IRQHandler+0x72>
 80012e6:	4798      	blx	r3
 80012e8:	4a11      	ldr	r2, [pc, #68]	; (8001330 <EXTI15_10_IRQHandler+0xb0>)
 80012ea:	6953      	ldr	r3, [r2, #20]
 80012ec:	f443 4380 	orr.w	r3, r3, #16384	; 0x4000
 80012f0:	6153      	str	r3, [r2, #20]
 80012f2:	4b0f      	ldr	r3, [pc, #60]	; (8001330 <EXTI15_10_IRQHandler+0xb0>)
 80012f4:	695b      	ldr	r3, [r3, #20]
 80012f6:	f413 4f00 	tst.w	r3, #32768	; 0x8000
 80012fa:	d008      	beq.n	800130e <EXTI15_10_IRQHandler+0x8e>
 80012fc:	4b0d      	ldr	r3, [pc, #52]	; (8001334 <EXTI15_10_IRQHandler+0xb4>)
 80012fe:	6bdb      	ldr	r3, [r3, #60]	; 0x3c
 8001300:	b12b      	cbz	r3, 800130e <EXTI15_10_IRQHandler+0x8e>
 8001302:	4798      	blx	r3
 8001304:	4a0a      	ldr	r2, [pc, #40]	; (8001330 <EXTI15_10_IRQHandler+0xb0>)
 8001306:	6953      	ldr	r3, [r2, #20]
 8001308:	f443 4300 	orr.w	r3, r3, #32768	; 0x8000
 800130c:	6153      	str	r3, [r2, #20]
 800130e:	bd08      	pop	{r3, pc}
 8001310:	4b07      	ldr	r3, [pc, #28]	; (8001330 <EXTI15_10_IRQHandler+0xb0>)
 8001312:	695b      	ldr	r3, [r3, #20]
 8001314:	f413 6f00 	tst.w	r3, #2048	; 0x800
 8001318:	d0c1      	beq.n	800129e <EXTI15_10_IRQHandler+0x1e>
 800131a:	4b06      	ldr	r3, [pc, #24]	; (8001334 <EXTI15_10_IRQHandler+0xb4>)
 800131c:	6adb      	ldr	r3, [r3, #44]	; 0x2c
 800131e:	2b00      	cmp	r3, #0
 8001320:	d0bd      	beq.n	800129e <EXTI15_10_IRQHandler+0x1e>
 8001322:	4798      	blx	r3
 8001324:	4a02      	ldr	r2, [pc, #8]	; (8001330 <EXTI15_10_IRQHandler+0xb0>)
 8001326:	6953      	ldr	r3, [r2, #20]
 8001328:	f443 6300 	orr.w	r3, r3, #2048	; 0x800
 800132c:	6153      	str	r3, [r2, #20]
 800132e:	e7b6      	b.n	800129e <EXTI15_10_IRQHandler+0x1e>
 8001330:	40013c00 	andmi	r3, r1, r0, lsl #24
 8001334:	20000100 	andcs	r0, r0, r0, lsl #2

08001338 <MGPIO_SetMode>:
 8001338:	4603      	mov	r3, r0
 800133a:	b920      	cbnz	r0, 8001346 <MGPIO_SetMode+0xe>
 800133c:	f1a1 000d 	sub.w	r0, r1, #13
 8001340:	b2c0      	uxtb	r0, r0
 8001342:	2802      	cmp	r0, #2
 8001344:	d90d      	bls.n	8001362 <MGPIO_SetMode+0x2a>
 8001346:	2b01      	cmp	r3, #1
 8001348:	d007      	beq.n	800135a <MGPIO_SetMode+0x22>
 800134a:	b410      	push	{r4}
 800134c:	2b01      	cmp	r3, #1
 800134e:	d015      	beq.n	800137c <MGPIO_SetMode+0x44>
 8001350:	2b02      	cmp	r3, #2
 8001352:	d01f      	beq.n	8001394 <MGPIO_SetMode+0x5c>
 8001354:	b133      	cbz	r3, 8001364 <MGPIO_SetMode+0x2c>
 8001356:	bc10      	pop	{r4}
 8001358:	4770      	bx	lr
 800135a:	1ec8      	subs	r0, r1, #3
 800135c:	b2c0      	uxtb	r0, r0
 800135e:	2801      	cmp	r0, #1
 8001360:	d8f3      	bhi.n	800134a <MGPIO_SetMode+0x12>
 8001362:	4770      	bx	lr
 8001364:	4c11      	ldr	r4, [pc, #68]	; (80013ac <MGPIO_SetMode+0x74>)
 8001366:	6823      	ldr	r3, [r4, #0]
 8001368:	0049      	lsls	r1, r1, #1
 800136a:	2003      	movs	r0, #3
 800136c:	4088      	lsls	r0, r1
 800136e:	ea23 0300 	bic.w	r3, r3, r0
 8001372:	fa02 f101 	lsl.w	r1, r2, r1
 8001376:	430b      	orrs	r3, r1
 8001378:	6023      	str	r3, [r4, #0]
 800137a:	e7ec      	b.n	8001356 <MGPIO_SetMode+0x1e>
 800137c:	4c0c      	ldr	r4, [pc, #48]	; (80013b0 <MGPIO_SetMode+0x78>)
 800137e:	6823      	ldr	r3, [r4, #0]
 8001380:	0049      	lsls	r1, r1, #1
 8001382:	2003      	movs	r0, #3
 8001384:	4088      	lsls	r0, r1
 8001386:	ea23 0300 	bic.w	r3, r3, r0
 800138a:	fa02 f101 	lsl.w	r1, r2, r1
 800138e:	430b      	orrs	r3, r1
 8001390:	6023      	str	r3, [r4, #0]
 8001392:	e7e0      	b.n	8001356 <MGPIO_SetMode+0x1e>
 8001394:	4c07      	ldr	r4, [pc, #28]	; (80013b4 <MGPIO_SetMode+0x7c>)
 8001396:	6823      	ldr	r3, [r4, #0]
 8001398:	0049      	lsls	r1, r1, #1
 800139a:	2003      	movs	r0, #3
 800139c:	4088      	lsls	r0, r1
 800139e:	ea23 0300 	bic.w	r3, r3, r0
 80013a2:	408a      	lsls	r2, r1
 80013a4:	4313      	orrs	r3, r2
 80013a6:	6023      	str	r3, [r4, #0]
 80013a8:	e7d5      	b.n	8001356 <MGPIO_SetMode+0x1e>
 80013aa:	bf00      	nop
 80013ac:	40020000 	andmi	r0, r2, r0
 80013b0:	40020400 	andmi	r0, r2, r0, lsl #8
 80013b4:	40020800 	andmi	r0, r2, r0, lsl #16

080013b8 <MGPIO_SetOutputPinMode>:
 80013b8:	b410      	push	{r4}
 80013ba:	4604      	mov	r4, r0
 80013bc:	b920      	cbnz	r0, 80013c8 <MGPIO_SetOutputPinMode+0x10>
 80013be:	f1a1 000d 	sub.w	r0, r1, #13
 80013c2:	b2c0      	uxtb	r0, r0
 80013c4:	2802      	cmp	r0, #2
 80013c6:	d906      	bls.n	80013d6 <MGPIO_SetOutputPinMode+0x1e>
 80013c8:	2c01      	cmp	r4, #1
 80013ca:	d006      	beq.n	80013da <MGPIO_SetOutputPinMode+0x22>
 80013cc:	2c01      	cmp	r4, #1
 80013ce:	d01f      	beq.n	8001410 <MGPIO_SetOutputPinMode+0x58>
 80013d0:	2c02      	cmp	r4, #2
 80013d2:	d033      	beq.n	800143c <MGPIO_SetOutputPinMode+0x84>
 80013d4:	b134      	cbz	r4, 80013e4 <MGPIO_SetOutputPinMode+0x2c>
 80013d6:	bc10      	pop	{r4}
 80013d8:	4770      	bx	lr
 80013da:	1ec8      	subs	r0, r1, #3
 80013dc:	b2c0      	uxtb	r0, r0
 80013de:	2801      	cmp	r0, #1
 80013e0:	d8f4      	bhi.n	80013cc <MGPIO_SetOutputPinMode+0x14>
 80013e2:	e7f8      	b.n	80013d6 <MGPIO_SetOutputPinMode+0x1e>
 80013e4:	4c20      	ldr	r4, [pc, #128]	; (8001468 <MGPIO_SetOutputPinMode+0xb0>)
 80013e6:	6860      	ldr	r0, [r4, #4]
 80013e8:	f04f 0c01 	mov.w	ip, #1
 80013ec:	fa0c fc01 	lsl.w	ip, ip, r1
 80013f0:	ea20 000c 	bic.w	r0, r0, ip
 80013f4:	408a      	lsls	r2, r1
 80013f6:	4302      	orrs	r2, r0
 80013f8:	6062      	str	r2, [r4, #4]
 80013fa:	68a2      	ldr	r2, [r4, #8]
 80013fc:	0049      	lsls	r1, r1, #1
 80013fe:	2003      	movs	r0, #3
 8001400:	4088      	lsls	r0, r1
 8001402:	ea22 0200 	bic.w	r2, r2, r0
 8001406:	fa03 f101 	lsl.w	r1, r3, r1
 800140a:	430a      	orrs	r2, r1
 800140c:	60a2      	str	r2, [r4, #8]
 800140e:	e7e2      	b.n	80013d6 <MGPIO_SetOutputPinMode+0x1e>
 8001410:	4c16      	ldr	r4, [pc, #88]	; (800146c <MGPIO_SetOutputPinMode+0xb4>)
 8001412:	6860      	ldr	r0, [r4, #4]
 8001414:	f04f 0c01 	mov.w	ip, #1
 8001418:	fa0c fc01 	lsl.w	ip, ip, r1
 800141c:	ea20 000c 	bic.w	r0, r0, ip
 8001420:	408a      	lsls	r2, r1
 8001422:	4302      	orrs	r2, r0
 8001424:	6062      	str	r2, [r4, #4]
 8001426:	68a2      	ldr	r2, [r4, #8]
 8001428:	0049      	lsls	r1, r1, #1
 800142a:	2003      	movs	r0, #3
 800142c:	4088      	lsls	r0, r1
 800142e:	ea22 0200 	bic.w	r2, r2, r0
 8001432:	fa03 f101 	lsl.w	r1, r3, r1
 8001436:	430a      	orrs	r2, r1
 8001438:	60a2      	str	r2, [r4, #8]
 800143a:	e7cc      	b.n	80013d6 <MGPIO_SetOutputPinMode+0x1e>
 800143c:	4c0c      	ldr	r4, [pc, #48]	; (8001470 <MGPIO_SetOutputPinMode+0xb8>)
 800143e:	6860      	ldr	r0, [r4, #4]
 8001440:	f04f 0c01 	mov.w	ip, #1
 8001444:	fa0c fc01 	lsl.w	ip, ip, r1
 8001448:	ea20 000c 	bic.w	r0, r0, ip
 800144c:	408a      	lsls	r2, r1
 800144e:	4302      	orrs	r2, r0
 8001450:	6062      	str	r2, [r4, #4]
 8001452:	68a2      	ldr	r2, [r4, #8]
 8001454:	0049      	lsls	r1, r1, #1
 8001456:	2003      	movs	r0, #3
 8001458:	4088      	lsls	r0, r1
 800145a:	ea22 0200 	bic.w	r2, r2, r0
 800145e:	408b      	lsls	r3, r1
 8001460:	4313      	orrs	r3, r2
 8001462:	60a3      	str	r3, [r4, #8]
 8001464:	e7b7      	b.n	80013d6 <MGPIO_SetOutputPinMode+0x1e>
 8001466:	bf00      	nop
 8001468:	40020000 	andmi	r0, r2, r0
 800146c:	40020400 	andmi	r0, r2, r0, lsl #8
 8001470:	40020800 	andmi	r0, r2, r0, lsl #16

08001474 <MGPIO_SetInputPinMode>:
 8001474:	4603      	mov	r3, r0
 8001476:	b920      	cbnz	r0, 8001482 <MGPIO_SetInputPinMode+0xe>
 8001478:	f1a1 000d 	sub.w	r0, r1, #13
 800147c:	b2c0      	uxtb	r0, r0
 800147e:	2802      	cmp	r0, #2
 8001480:	d90d      	bls.n	800149e <MGPIO_SetInputPinMode+0x2a>
 8001482:	2b01      	cmp	r3, #1
 8001484:	d007      	beq.n	8001496 <MGPIO_SetInputPinMode+0x22>
 8001486:	b410      	push	{r4}
 8001488:	2b01      	cmp	r3, #1
 800148a:	d015      	beq.n	80014b8 <MGPIO_SetInputPinMode+0x44>
 800148c:	2b02      	cmp	r3, #2
 800148e:	d01f      	beq.n	80014d0 <MGPIO_SetInputPinMode+0x5c>
 8001490:	b133      	cbz	r3, 80014a0 <MGPIO_SetInputPinMode+0x2c>
 8001492:	bc10      	pop	{r4}
 8001494:	4770      	bx	lr
 8001496:	1ec8      	subs	r0, r1, #3
 8001498:	b2c0      	uxtb	r0, r0
 800149a:	2801      	cmp	r0, #1
 800149c:	d8f3      	bhi.n	8001486 <MGPIO_SetInputPinMode+0x12>
 800149e:	4770      	bx	lr
 80014a0:	4c11      	ldr	r4, [pc, #68]	; (80014e8 <MGPIO_SetInputPinMode+0x74>)
 80014a2:	68e3      	ldr	r3, [r4, #12]
 80014a4:	0049      	lsls	r1, r1, #1
 80014a6:	2003      	movs	r0, #3
 80014a8:	4088      	lsls	r0, r1
 80014aa:	ea23 0300 	bic.w	r3, r3, r0
 80014ae:	fa02 f101 	lsl.w	r1, r2, r1
 80014b2:	430b      	orrs	r3, r1
 80014b4:	60e3      	str	r3, [r4, #12]
 80014b6:	e7ec      	b.n	8001492 <MGPIO_SetInputPinMode+0x1e>
 80014b8:	4c0c      	ldr	r4, [pc, #48]	; (80014ec <MGPIO_SetInputPinMode+0x78>)
 80014ba:	68e3      	ldr	r3, [r4, #12]
 80014bc:	0049      	lsls	r1, r1, #1
 80014be:	2003      	movs	r0, #3
 80014c0:	4088      	lsls	r0, r1
 80014c2:	ea23 0300 	bic.w	r3, r3, r0
 80014c6:	fa02 f101 	lsl.w	r1, r2, r1
 80014ca:	430b      	orrs	r3, r1
 80014cc:	60e3      	str	r3, [r4, #12]
 80014ce:	e7e0      	b.n	8001492 <MGPIO_SetInputPinMode+0x1e>
 80014d0:	4c07      	ldr	r4, [pc, #28]	; (80014f0 <MGPIO_SetInputPinMode+0x7c>)
 80014d2:	68e3      	ldr	r3, [r4, #12]
 80014d4:	0049      	lsls	r1, r1, #1
 80014d6:	2003      	movs	r0, #3
 80014d8:	4088      	lsls	r0, r1
 80014da:	ea23 0300 	bic.w	r3, r3, r0
 80014de:	408a      	lsls	r2, r1
 80014e0:	4313      	orrs	r3, r2
 80014e2:	60e3      	str	r3, [r4, #12]
 80014e4:	e7d5      	b.n	8001492 <MGPIO_SetInputPinMode+0x1e>
 80014e6:	bf00      	nop
 80014e8:	40020000 	andmi	r0, r2, r0
 80014ec:	40020400 	andmi	r0, r2, r0, lsl #8
 80014f0:	40020800 	andmi	r0, r2, r0, lsl #16

080014f4 <MGPIO_SetPinValue>:
 80014f4:	4603      	mov	r3, r0
 80014f6:	b920      	cbnz	r0, 8001502 <MGPIO_SetPinValue+0xe>
 80014f8:	f1a1 000d 	sub.w	r0, r1, #13
 80014fc:	b2c0      	uxtb	r0, r0
 80014fe:	2802      	cmp	r0, #2
 8001500:	d90d      	bls.n	800151e <MGPIO_SetPinValue+0x2a>
 8001502:	2b01      	cmp	r3, #1
 8001504:	d007      	beq.n	8001516 <MGPIO_SetPinValue+0x22>
 8001506:	b410      	push	{r4}
 8001508:	2b01      	cmp	r3, #1
 800150a:	d013      	beq.n	8001534 <MGPIO_SetPinValue+0x40>
 800150c:	2b02      	cmp	r3, #2
 800150e:	d01b      	beq.n	8001548 <MGPIO_SetPinValue+0x54>
 8001510:	b133      	cbz	r3, 8001520 <MGPIO_SetPinValue+0x2c>
 8001512:	bc10      	pop	{r4}
 8001514:	4770      	bx	lr
 8001516:	1ec8      	subs	r0, r1, #3
 8001518:	b2c0      	uxtb	r0, r0
 800151a:	2801      	cmp	r0, #1
 800151c:	d8f3      	bhi.n	8001506 <MGPIO_SetPinValue+0x12>
 800151e:	4770      	bx	lr
 8001520:	4c0e      	ldr	r4, [pc, #56]	; (800155c <MGPIO_SetPinValue+0x68>)
 8001522:	6963      	ldr	r3, [r4, #20]
 8001524:	2001      	movs	r0, #1
 8001526:	4088      	lsls	r0, r1
 8001528:	ea23 0300 	bic.w	r3, r3, r0
 800152c:	408a      	lsls	r2, r1
 800152e:	431a      	orrs	r2, r3
 8001530:	6162      	str	r2, [r4, #20]
 8001532:	e7ee      	b.n	8001512 <MGPIO_SetPinValue+0x1e>
 8001534:	4c0a      	ldr	r4, [pc, #40]	; (8001560 <MGPIO_SetPinValue+0x6c>)
 8001536:	6963      	ldr	r3, [r4, #20]
 8001538:	2001      	movs	r0, #1
 800153a:	4088      	lsls	r0, r1
 800153c:	ea23 0300 	bic.w	r3, r3, r0
 8001540:	408a      	lsls	r2, r1
 8001542:	431a      	orrs	r2, r3
 8001544:	6162      	str	r2, [r4, #20]
 8001546:	e7e4      	b.n	8001512 <MGPIO_SetPinValue+0x1e>
 8001548:	4c06      	ldr	r4, [pc, #24]	; (8001564 <MGPIO_SetPinValue+0x70>)
 800154a:	6963      	ldr	r3, [r4, #20]
 800154c:	2001      	movs	r0, #1
 800154e:	4088      	lsls	r0, r1
 8001550:	ea23 0300 	bic.w	r3, r3, r0
 8001554:	408a      	lsls	r2, r1
 8001556:	4313      	orrs	r3, r2
 8001558:	6163      	str	r3, [r4, #20]
 800155a:	e7da      	b.n	8001512 <MGPIO_SetPinValue+0x1e>
 800155c:	40020000 	andmi	r0, r2, r0
 8001560:	40020400 	andmi	r0, r2, r0, lsl #8
 8001564:	40020800 	andmi	r0, r2, r0, lsl #16

08001568 <MNVIC_VoidEnbleInterrupt>:
 8001568:	ea4f 1c50 	mov.w	ip, r0, lsr #5
 800156c:	4905      	ldr	r1, [pc, #20]	; (8001584 <MNVIC_VoidEnbleInterrupt+0x1c>)
 800156e:	f851 302c 	ldr.w	r3, [r1, ip, lsl #2]
 8001572:	f000 001f 	and.w	r0, r0, #31
 8001576:	2201      	movs	r2, #1
 8001578:	4082      	lsls	r2, r0
 800157a:	4313      	orrs	r3, r2
 800157c:	f841 302c 	str.w	r3, [r1, ip, lsl #2]
 8001580:	4770      	bx	lr
 8001582:	bf00      	nop
 8001584:	e000e100 	and	lr, r0, r0, lsl #2

08001588 <MNVIC_VoidSetInterruptGroupMode>:
 8001588:	4b08      	ldr	r3, [pc, #32]	; (80015ac <MNVIC_VoidSetInterruptGroupMode+0x24>)
 800158a:	7018      	strb	r0, [r3, #0]
 800158c:	f04f 22e0 	mov.w	r2, #3758153728	; 0xe000e000
 8001590:	f8d2 3d0c 	ldr.w	r3, [r2, #3340]	; 0xd0c
 8001594:	f423 63e0 	bic.w	r3, r3, #1792	; 0x700
 8001598:	ea43 2000 	orr.w	r0, r3, r0, lsl #8
 800159c:	f040 60bf 	orr.w	r0, r0, #100139008	; 0x5f80000
 80015a0:	f440 3000 	orr.w	r0, r0, #131072	; 0x20000
 80015a4:	f8c2 0d0c 	str.w	r0, [r2, #3340]	; 0xd0c
 80015a8:	4770      	bx	lr
 80015aa:	bf00      	nop
 80015ac:	20000140 	andcs	r0, r0, r0, asr #2

080015b0 <MNVIC_VoidSetInterruptPriority>:
 80015b0:	f100 4360 	add.w	r3, r0, #3758096384	; 0xe0000000
 80015b4:	f503 4361 	add.w	r3, r3, #57600	; 0xe100
 80015b8:	f893 c300 	ldrb.w	ip, [r3, #768]	; 0x300
 80015bc:	f00c 0c0f 	and.w	ip, ip, #15
 80015c0:	f883 c300 	strb.w	ip, [r3, #768]	; 0x300
 80015c4:	4b1e      	ldr	r3, [pc, #120]	; (8001640 <MNVIC_VoidSetInterruptPriority+0x90>)
 80015c6:	781b      	ldrb	r3, [r3, #0]
 80015c8:	3b03      	subs	r3, #3
 80015ca:	2b04      	cmp	r3, #4
 80015cc:	d836      	bhi.n	800163c <MNVIC_VoidSetInterruptPriority+0x8c>
 80015ce:	e8df f003 	tbb	[pc, r3]
 80015d2:	22170c03 	andscs	r0, r7, #768	; 0x300
 80015d6:	0109002d 	tsteq	r9, sp, lsr #32
 80015da:	b2c9      	uxtb	r1, r1
 80015dc:	f100 4060 	add.w	r0, r0, #3758096384	; 0xe0000000
 80015e0:	f500 4061 	add.w	r0, r0, #57600	; 0xe100
 80015e4:	f880 1300 	strb.w	r1, [r0, #768]	; 0x300
 80015e8:	4770      	bx	lr
 80015ea:	0112      	lsls	r2, r2, #4
 80015ec:	ea42 1141 	orr.w	r1, r2, r1, lsl #5
 80015f0:	b2ca      	uxtb	r2, r1
 80015f2:	f100 4060 	add.w	r0, r0, #3758096384	; 0xe0000000
 80015f6:	f500 4061 	add.w	r0, r0, #57600	; 0xe100
 80015fa:	f880 2300 	strb.w	r2, [r0, #768]	; 0x300
 80015fe:	4770      	bx	lr
 8001600:	0112      	lsls	r2, r2, #4
 8001602:	ea42 1181 	orr.w	r1, r2, r1, lsl #6
 8001606:	b2ca      	uxtb	r2, r1
 8001608:	f100 4060 	add.w	r0, r0, #3758096384	; 0xe0000000
 800160c:	f500 4061 	add.w	r0, r0, #57600	; 0xe100
 8001610:	f880 2300 	strb.w	r2, [r0, #768]	; 0x300
 8001614:	4770      	bx	lr
 8001616:	0112      	lsls	r2, r2, #4
 8001618:	ea42 11c1 	orr.w	r1, r2, r1, lsl #7
 800161c:	b2ca      	uxtb	r2, r1
 800161e:	f100 4060 	add.w	r0, r0, #3758096384	; 0xe0000000
 8001622:	f500 4061 	add.w	r0, r0, #57600	; 0xe100
 8001626:	f880 2300 	strb.w	r2, [r0, #768]	; 0x300
 800162a:	4770      	bx	lr
 800162c:	0112      	lsls	r2, r2, #4
 800162e:	b2d2      	uxtb	r2, r2
 8001630:	f100 4060 	add.w	r0, r0, #3758096384	; 0xe0000000
 8001634:	f500 4061 	add.w	r0, r0, #57600	; 0xe100
 8001638:	f880 2300 	strb.w	r2, [r0, #768]	; 0x300
 800163c:	4770      	bx	lr
 800163e:	bf00      	nop
 8001640:	20000140 	andcs	r0, r0, r0, asr #2

08001644 <MRCC_Init>:
 8001644:	4a0b      	ldr	r2, [pc, #44]	; (8001674 <MRCC_Init+0x30>)
 8001646:	6813      	ldr	r3, [r2, #0]
 8001648:	f043 0301 	orr.w	r3, r3, #1
 800164c:	6013      	str	r3, [r2, #0]
 800164e:	4b09      	ldr	r3, [pc, #36]	; (8001674 <MRCC_Init+0x30>)
 8001650:	681b      	ldr	r3, [r3, #0]
 8001652:	f013 0f02 	tst.w	r3, #2
 8001656:	d0fa      	beq.n	800164e <MRCC_Init+0xa>
 8001658:	4a06      	ldr	r2, [pc, #24]	; (8001674 <MRCC_Init+0x30>)
 800165a:	6893      	ldr	r3, [r2, #8]
 800165c:	f023 0303 	bic.w	r3, r3, #3
 8001660:	6093      	str	r3, [r2, #8]
 8001662:	6893      	ldr	r3, [r2, #8]
 8001664:	f423 437c 	bic.w	r3, r3, #64512	; 0xfc00
 8001668:	f023 03f0 	bic.w	r3, r3, #240	; 0xf0
 800166c:	f443 4310 	orr.w	r3, r3, #36864	; 0x9000
 8001670:	6093      	str	r3, [r2, #8]
 8001672:	4770      	bx	lr
 8001674:	40023800 	andmi	r3, r2, r0, lsl #16

08001678 <MRCC_Enable_Peripheral>:
 8001678:	2803      	cmp	r0, #3
 800167a:	d81e      	bhi.n	80016ba <MRCC_Enable_Peripheral+0x42>
 800167c:	e8df f000 	tbb	[pc, r0]
 8001680:	17100902 	ldrne	r0, [r0, -r2, lsl #18]
 8001684:	480d      	ldr	r0, [pc, #52]	; (80016bc <MRCC_Enable_Peripheral+0x44>)
 8001686:	6c03      	ldr	r3, [r0, #64]	; 0x40
 8001688:	2201      	movs	r2, #1
 800168a:	408a      	lsls	r2, r1
 800168c:	4313      	orrs	r3, r2
 800168e:	6403      	str	r3, [r0, #64]	; 0x40
 8001690:	4770      	bx	lr
 8001692:	480a      	ldr	r0, [pc, #40]	; (80016bc <MRCC_Enable_Peripheral+0x44>)
 8001694:	6c43      	ldr	r3, [r0, #68]	; 0x44
 8001696:	2201      	movs	r2, #1
 8001698:	408a      	lsls	r2, r1
 800169a:	4313      	orrs	r3, r2
 800169c:	6443      	str	r3, [r0, #68]	; 0x44
 800169e:	4770      	bx	lr
 80016a0:	4806      	ldr	r0, [pc, #24]	; (80016bc <MRCC_Enable_Peripheral+0x44>)
 80016a2:	6b03      	ldr	r3, [r0, #48]	; 0x30
 80016a4:	2201      	movs	r2, #1
 80016a6:	408a      	lsls	r2, r1
 80016a8:	4313      	orrs	r3, r2
 80016aa:	6303      	str	r3, [r0, #48]	; 0x30
 80016ac:	4770      	bx	lr
 80016ae:	4803      	ldr	r0, [pc, #12]	; (80016bc <MRCC_Enable_Peripheral+0x44>)
 80016b0:	6b43      	ldr	r3, [r0, #52]	; 0x34
 80016b2:	2201      	movs	r2, #1
 80016b4:	408a      	lsls	r2, r1
 80016b6:	4313      	orrs	r3, r2
 80016b8:	6343      	str	r3, [r0, #52]	; 0x34
 80016ba:	4770      	bx	lr
 80016bc:	40023800 	andmi	r3, r2, r0, lsl #16

080016c0 <SYSTICK_voidInit>:
 80016c0:	f04f 22e0 	mov.w	r2, #3758153728	; 0xe000e000
 80016c4:	6913      	ldr	r3, [r2, #16]
 80016c6:	f043 0304 	orr.w	r3, r3, #4
 80016ca:	6113      	str	r3, [r2, #16]
 80016cc:	4770      	bx	lr

080016ce <SYSTICK_voidStart>:
 80016ce:	f020 407f 	bic.w	r0, r0, #4278190080	; 0xff000000
 80016d2:	f04f 23e0 	mov.w	r3, #3758153728	; 0xe000e000
 80016d6:	6158      	str	r0, [r3, #20]
 80016d8:	2200      	movs	r2, #0
 80016da:	619a      	str	r2, [r3, #24]
 80016dc:	691a      	ldr	r2, [r3, #16]
 80016de:	f042 0201 	orr.w	r2, r2, #1
 80016e2:	611a      	str	r2, [r3, #16]
 80016e4:	4770      	bx	lr

080016e6 <SYSTICK_voidDelayMs>:
 80016e6:	b508      	push	{r3, lr}
 80016e8:	f44f 537a 	mov.w	r3, #16000	; 0x3e80
 80016ec:	fb03 f000 	mul.w	r0, r3, r0
 80016f0:	f7ff ffed 	bl	80016ce <SYSTICK_voidStart>
 80016f4:	f04f 23e0 	mov.w	r3, #3758153728	; 0xe000e000
 80016f8:	691b      	ldr	r3, [r3, #16]
 80016fa:	f413 3f80 	tst.w	r3, #65536	; 0x10000
 80016fe:	d0f9      	beq.n	80016f4 <SYSTICK_voidDelayMs+0xe>
 8001700:	f04f 23e0 	mov.w	r3, #3758153728	; 0xe000e000
 8001704:	2200      	movs	r2, #0
 8001706:	615a      	str	r2, [r3, #20]
 8001708:	619a      	str	r2, [r3, #24]
 800170a:	bd08      	pop	{r3, pc}

0800170c <SystemClock_Config>:
 800170c:	b570      	push	{r4, r5, r6, lr}
 800170e:	b094      	sub	sp, #80	; 0x50
 8001710:	2400      	movs	r4, #0
 8001712:	9401      	str	r4, [sp, #4]
 8001714:	4b21      	ldr	r3, [pc, #132]	; (800179c <SystemClock_Config+0x90>)
 8001716:	6c1a      	ldr	r2, [r3, #64]	; 0x40
 8001718:	f042 5280 	orr.w	r2, r2, #268435456	; 0x10000000
 800171c:	641a      	str	r2, [r3, #64]	; 0x40
 800171e:	6c1b      	ldr	r3, [r3, #64]	; 0x40
 8001720:	f003 5380 	and.w	r3, r3, #268435456	; 0x10000000
 8001724:	9301      	str	r3, [sp, #4]
 8001726:	9b01      	ldr	r3, [sp, #4]
 8001728:	9402      	str	r4, [sp, #8]
 800172a:	4b1d      	ldr	r3, [pc, #116]	; (80017a0 <SystemClock_Config+0x94>)
 800172c:	681a      	ldr	r2, [r3, #0]
 800172e:	f442 4240 	orr.w	r2, r2, #49152	; 0xc000
 8001732:	601a      	str	r2, [r3, #0]
 8001734:	681b      	ldr	r3, [r3, #0]
 8001736:	f403 4340 	and.w	r3, r3, #49152	; 0xc000
 800173a:	9302      	str	r3, [sp, #8]
 800173c:	9b02      	ldr	r3, [sp, #8]
 800173e:	2301      	movs	r3, #1
 8001740:	9308      	str	r3, [sp, #32]
 8001742:	f44f 3380 	mov.w	r3, #65536	; 0x10000
 8001746:	9309      	str	r3, [sp, #36]	; 0x24
 8001748:	f44f 0380 	mov.w	r3, #4194304	; 0x400000
 800174c:	930f      	str	r3, [sp, #60]	; 0x3c
 800174e:	2319      	movs	r3, #25
 8001750:	9310      	str	r3, [sp, #64]	; 0x40
 8001752:	f44f 73a8 	mov.w	r3, #336	; 0x150
 8001756:	9311      	str	r3, [sp, #68]	; 0x44
 8001758:	2604      	movs	r6, #4
 800175a:	9612      	str	r6, [sp, #72]	; 0x48
 800175c:	2307      	movs	r3, #7
 800175e:	9313      	str	r3, [sp, #76]	; 0x4c
 8001760:	2502      	movs	r5, #2
 8001762:	950e      	str	r5, [sp, #56]	; 0x38
 8001764:	a808      	add	r0, sp, #32
 8001766:	f7fe ff45 	bl	80005f4 <HAL_RCC_OscConfig>
 800176a:	230f      	movs	r3, #15
 800176c:	9303      	str	r3, [sp, #12]
 800176e:	9504      	str	r5, [sp, #16]
 8001770:	9405      	str	r4, [sp, #20]
 8001772:	f44f 5380 	mov.w	r3, #4096	; 0x1000
 8001776:	9306      	str	r3, [sp, #24]
 8001778:	9407      	str	r4, [sp, #28]
 800177a:	4629      	mov	r1, r5
 800177c:	a803      	add	r0, sp, #12
 800177e:	f7ff fa09 	bl	8000b94 <HAL_RCC_ClockConfig>
 8001782:	f7ff fb19 	bl	8000db8 <HAL_RCC_GetHCLKFreq>
 8001786:	4b07      	ldr	r3, [pc, #28]	; (80017a4 <SystemClock_Config+0x98>)
 8001788:	fba3 3000 	umull	r3, r0, r3, r0
 800178c:	0980      	lsrs	r0, r0, #6
 800178e:	f7fe ff03 	bl	8000598 <HAL_SYSTICK_Config>
 8001792:	4630      	mov	r0, r6
 8001794:	f7fe ff14 	bl	80005c0 <HAL_SYSTICK_CLKSourceConfig>
 8001798:	b014      	add	sp, #80	; 0x50
 800179a:	bd70      	pop	{r4, r5, r6, pc}
 800179c:	40023800 	andmi	r3, r2, r0, lsl #16
 80017a0:	40007000 	andmi	r7, r0, r0
 80017a4:	10624dd3 	ldrdne	r4, [r2], #-211	; 0xffffff2d	; <UNPREDICTABLE>

080017a8 <__initialize_hardware>:
 80017a8:	b508      	push	{r3, lr}
 80017aa:	f7fe fe5f 	bl	800046c <HAL_Init>
 80017ae:	f7ff ffad 	bl	800170c <SystemClock_Config>
 80017b2:	f7ff fc21 	bl	8000ff8 <SystemCoreClockUpdate>
 80017b6:	bd08      	pop	{r3, pc}

080017b8 <assert_failed>:
 80017b8:	b508      	push	{r3, lr}
 80017ba:	460a      	mov	r2, r1
 80017bc:	4601      	mov	r1, r0
 80017be:	4802      	ldr	r0, [pc, #8]	; (80017c8 <assert_failed+0x10>)
 80017c0:	f7ff fb62 	bl	8000e88 <trace_printf>
 80017c4:	e7fe      	b.n	80017c4 <assert_failed+0xc>
 80017c6:	bf00      	nop
 80017c8:	08002958 	stmdaeq	r0, {r3, r4, r6, r8, fp, sp}

080017cc <func1>:
 80017cc:	b508      	push	{r3, lr}
 80017ce:	2200      	movs	r2, #0
 80017d0:	2107      	movs	r1, #7
 80017d2:	4610      	mov	r0, r2
 80017d4:	f7ff fe8e 	bl	80014f4 <MGPIO_SetPinValue>
 80017d8:	2201      	movs	r2, #1
 80017da:	2100      	movs	r1, #0
 80017dc:	4608      	mov	r0, r1
 80017de:	f7ff fe89 	bl	80014f4 <MGPIO_SetPinValue>
 80017e2:	f44f 707a 	mov.w	r0, #1000	; 0x3e8
 80017e6:	f7ff ff7e 	bl	80016e6 <SYSTICK_voidDelayMs>
 80017ea:	2200      	movs	r2, #0
 80017ec:	4611      	mov	r1, r2
 80017ee:	4610      	mov	r0, r2
 80017f0:	f7ff fe80 	bl	80014f4 <MGPIO_SetPinValue>
 80017f4:	2201      	movs	r2, #1
 80017f6:	4611      	mov	r1, r2
 80017f8:	2000      	movs	r0, #0
 80017fa:	f7ff fe7b 	bl	80014f4 <MGPIO_SetPinValue>
 80017fe:	f44f 707a 	mov.w	r0, #1000	; 0x3e8
 8001802:	f7ff ff70 	bl	80016e6 <SYSTICK_voidDelayMs>
 8001806:	2200      	movs	r2, #0
 8001808:	2101      	movs	r1, #1
 800180a:	4610      	mov	r0, r2
 800180c:	f7ff fe72 	bl	80014f4 <MGPIO_SetPinValue>
 8001810:	2201      	movs	r2, #1
 8001812:	2102      	movs	r1, #2
 8001814:	2000      	movs	r0, #0
 8001816:	f7ff fe6d 	bl	80014f4 <MGPIO_SetPinValue>
 800181a:	f44f 707a 	mov.w	r0, #1000	; 0x3e8
 800181e:	f7ff ff62 	bl	80016e6 <SYSTICK_voidDelayMs>
 8001822:	2200      	movs	r2, #0
 8001824:	2102      	movs	r1, #2
 8001826:	4610      	mov	r0, r2
 8001828:	f7ff fe64 	bl	80014f4 <MGPIO_SetPinValue>
 800182c:	2201      	movs	r2, #1
 800182e:	2103      	movs	r1, #3
 8001830:	2000      	movs	r0, #0
 8001832:	f7ff fe5f 	bl	80014f4 <MGPIO_SetPinValue>
 8001836:	f44f 707a 	mov.w	r0, #1000	; 0x3e8
 800183a:	f7ff ff54 	bl	80016e6 <SYSTICK_voidDelayMs>
 800183e:	2200      	movs	r2, #0
 8001840:	2103      	movs	r1, #3
 8001842:	4610      	mov	r0, r2
 8001844:	f7ff fe56 	bl	80014f4 <MGPIO_SetPinValue>
 8001848:	2201      	movs	r2, #1
 800184a:	2104      	movs	r1, #4
 800184c:	2000      	movs	r0, #0
 800184e:	f7ff fe51 	bl	80014f4 <MGPIO_SetPinValue>
 8001852:	f44f 707a 	mov.w	r0, #1000	; 0x3e8
 8001856:	f7ff ff46 	bl	80016e6 <SYSTICK_voidDelayMs>
 800185a:	2200      	movs	r2, #0
 800185c:	2104      	movs	r1, #4
 800185e:	4610      	mov	r0, r2
 8001860:	f7ff fe48 	bl	80014f4 <MGPIO_SetPinValue>
 8001864:	2201      	movs	r2, #1
 8001866:	2105      	movs	r1, #5
 8001868:	2000      	movs	r0, #0
 800186a:	f7ff fe43 	bl	80014f4 <MGPIO_SetPinValue>
 800186e:	f44f 707a 	mov.w	r0, #1000	; 0x3e8
 8001872:	f7ff ff38 	bl	80016e6 <SYSTICK_voidDelayMs>
 8001876:	2200      	movs	r2, #0
 8001878:	2105      	movs	r1, #5
 800187a:	4610      	mov	r0, r2
 800187c:	f7ff fe3a 	bl	80014f4 <MGPIO_SetPinValue>
 8001880:	2201      	movs	r2, #1
 8001882:	2106      	movs	r1, #6
 8001884:	2000      	movs	r0, #0
 8001886:	f7ff fe35 	bl	80014f4 <MGPIO_SetPinValue>
 800188a:	f44f 707a 	mov.w	r0, #1000	; 0x3e8
 800188e:	f7ff ff2a 	bl	80016e6 <SYSTICK_voidDelayMs>
 8001892:	2200      	movs	r2, #0
 8001894:	2106      	movs	r1, #6
 8001896:	4610      	mov	r0, r2
 8001898:	f7ff fe2c 	bl	80014f4 <MGPIO_SetPinValue>
 800189c:	2201      	movs	r2, #1
 800189e:	2107      	movs	r1, #7
 80018a0:	2000      	movs	r0, #0
 80018a2:	f7ff fe27 	bl	80014f4 <MGPIO_SetPinValue>
 80018a6:	f44f 707a 	mov.w	r0, #1000	; 0x3e8
 80018aa:	f7ff ff1c 	bl	80016e6 <SYSTICK_voidDelayMs>
 80018ae:	e78e      	b.n	80017ce <func1+0x2>

080018b0 <func2>:
 80018b0:	b508      	push	{r3, lr}
 80018b2:	2201      	movs	r2, #1
 80018b4:	2100      	movs	r1, #0
 80018b6:	4608      	mov	r0, r1
 80018b8:	f7ff fe1c 	bl	80014f4 <MGPIO_SetPinValue>
 80018bc:	2201      	movs	r2, #1
 80018be:	4611      	mov	r1, r2
 80018c0:	2000      	movs	r0, #0
 80018c2:	f7ff fe17 	bl	80014f4 <MGPIO_SetPinValue>
 80018c6:	2201      	movs	r2, #1
 80018c8:	2102      	movs	r1, #2
 80018ca:	2000      	movs	r0, #0
 80018cc:	f7ff fe12 	bl	80014f4 <MGPIO_SetPinValue>
 80018d0:	2201      	movs	r2, #1
 80018d2:	2103      	movs	r1, #3
 80018d4:	2000      	movs	r0, #0
 80018d6:	f7ff fe0d 	bl	80014f4 <MGPIO_SetPinValue>
 80018da:	2201      	movs	r2, #1
 80018dc:	2104      	movs	r1, #4
 80018de:	2000      	movs	r0, #0
 80018e0:	f7ff fe08 	bl	80014f4 <MGPIO_SetPinValue>
 80018e4:	2201      	movs	r2, #1
 80018e6:	2105      	movs	r1, #5
 80018e8:	2000      	movs	r0, #0
 80018ea:	f7ff fe03 	bl	80014f4 <MGPIO_SetPinValue>
 80018ee:	2201      	movs	r2, #1
 80018f0:	2106      	movs	r1, #6
 80018f2:	2000      	movs	r0, #0
 80018f4:	f7ff fdfe 	bl	80014f4 <MGPIO_SetPinValue>
 80018f8:	2201      	movs	r2, #1
 80018fa:	2107      	movs	r1, #7
 80018fc:	2000      	movs	r0, #0
 80018fe:	f7ff fdf9 	bl	80014f4 <MGPIO_SetPinValue>
 8001902:	f241 3088 	movw	r0, #5000	; 0x1388
 8001906:	f7ff feee 	bl	80016e6 <SYSTICK_voidDelayMs>
 800190a:	bd08      	pop	{r3, pc}

0800190c <main>:
 800190c:	b508      	push	{r3, lr}
 800190e:	f7ff fe99 	bl	8001644 <MRCC_Init>
 8001912:	2100      	movs	r1, #0
 8001914:	2002      	movs	r0, #2
 8001916:	f7ff feaf 	bl	8001678 <MRCC_Enable_Peripheral>
 800191a:	2101      	movs	r1, #1
 800191c:	2002      	movs	r0, #2
 800191e:	f7ff feab 	bl	8001678 <MRCC_Enable_Peripheral>
 8001922:	210e      	movs	r1, #14
 8001924:	2001      	movs	r0, #1
 8001926:	f7ff fea7 	bl	8001678 <MRCC_Enable_Peripheral>
 800192a:	f7ff fec9 	bl	80016c0 <SYSTICK_voidInit>
 800192e:	2201      	movs	r2, #1
 8001930:	2100      	movs	r1, #0
 8001932:	4608      	mov	r0, r1
 8001934:	f7ff fd00 	bl	8001338 <MGPIO_SetMode>
 8001938:	2300      	movs	r3, #0
 800193a:	461a      	mov	r2, r3
 800193c:	4619      	mov	r1, r3
 800193e:	4618      	mov	r0, r3
 8001940:	f7ff fd3a 	bl	80013b8 <MGPIO_SetOutputPinMode>
 8001944:	2201      	movs	r2, #1
 8001946:	4611      	mov	r1, r2
 8001948:	2000      	movs	r0, #0
 800194a:	f7ff fcf5 	bl	8001338 <MGPIO_SetMode>
 800194e:	2300      	movs	r3, #0
 8001950:	461a      	mov	r2, r3
 8001952:	2101      	movs	r1, #1
 8001954:	4618      	mov	r0, r3
 8001956:	f7ff fd2f 	bl	80013b8 <MGPIO_SetOutputPinMode>
 800195a:	2201      	movs	r2, #1
 800195c:	2102      	movs	r1, #2
 800195e:	2000      	movs	r0, #0
 8001960:	f7ff fcea 	bl	8001338 <MGPIO_SetMode>
 8001964:	2300      	movs	r3, #0
 8001966:	461a      	mov	r2, r3
 8001968:	2102      	movs	r1, #2
 800196a:	4618      	mov	r0, r3
 800196c:	f7ff fd24 	bl	80013b8 <MGPIO_SetOutputPinMode>
 8001970:	2201      	movs	r2, #1
 8001972:	2103      	movs	r1, #3
 8001974:	2000      	movs	r0, #0
 8001976:	f7ff fcdf 	bl	8001338 <MGPIO_SetMode>
 800197a:	2300      	movs	r3, #0
 800197c:	461a      	mov	r2, r3
 800197e:	2103      	movs	r1, #3
 8001980:	4618      	mov	r0, r3
 8001982:	f7ff fd19 	bl	80013b8 <MGPIO_SetOutputPinMode>
 8001986:	2201      	movs	r2, #1
 8001988:	2104      	movs	r1, #4
 800198a:	2000      	movs	r0, #0
 800198c:	f7ff fcd4 	bl	8001338 <MGPIO_SetMode>
 8001990:	2300      	movs	r3, #0
 8001992:	461a      	mov	r2, r3
 8001994:	2104      	movs	r1, #4
 8001996:	4618      	mov	r0, r3
 8001998:	f7ff fd0e 	bl	80013b8 <MGPIO_SetOutputPinMode>
 800199c:	2201      	movs	r2, #1
 800199e:	2105      	movs	r1, #5
 80019a0:	2000      	movs	r0, #0
 80019a2:	f7ff fcc9 	bl	8001338 <MGPIO_SetMode>
 80019a6:	2300      	movs	r3, #0
 80019a8:	461a      	mov	r2, r3
 80019aa:	2105      	movs	r1, #5
 80019ac:	4618      	mov	r0, r3
 80019ae:	f7ff fd03 	bl	80013b8 <MGPIO_SetOutputPinMode>
 80019b2:	2201      	movs	r2, #1
 80019b4:	2106      	movs	r1, #6
 80019b6:	2000      	movs	r0, #0
 80019b8:	f7ff fcbe 	bl	8001338 <MGPIO_SetMode>
 80019bc:	2300      	movs	r3, #0
 80019be:	461a      	mov	r2, r3
 80019c0:	2106      	movs	r1, #6
 80019c2:	4618      	mov	r0, r3
 80019c4:	f7ff fcf8 	bl	80013b8 <MGPIO_SetOutputPinMode>
 80019c8:	2201      	movs	r2, #1
 80019ca:	2107      	movs	r1, #7
 80019cc:	2000      	movs	r0, #0
 80019ce:	f7ff fcb3 	bl	8001338 <MGPIO_SetMode>
 80019d2:	2300      	movs	r3, #0
 80019d4:	461a      	mov	r2, r3
 80019d6:	2107      	movs	r1, #7
 80019d8:	4618      	mov	r0, r3
 80019da:	f7ff fced 	bl	80013b8 <MGPIO_SetOutputPinMode>
 80019de:	2200      	movs	r2, #0
 80019e0:	4611      	mov	r1, r2
 80019e2:	4610      	mov	r0, r2
 80019e4:	f7ff fd86 	bl	80014f4 <MGPIO_SetPinValue>
 80019e8:	2200      	movs	r2, #0
 80019ea:	2101      	movs	r1, #1
 80019ec:	4610      	mov	r0, r2
 80019ee:	f7ff fd81 	bl	80014f4 <MGPIO_SetPinValue>
 80019f2:	2200      	movs	r2, #0
 80019f4:	2102      	movs	r1, #2
 80019f6:	4610      	mov	r0, r2
 80019f8:	f7ff fd7c 	bl	80014f4 <MGPIO_SetPinValue>
 80019fc:	2200      	movs	r2, #0
 80019fe:	2103      	movs	r1, #3
 8001a00:	4610      	mov	r0, r2
 8001a02:	f7ff fd77 	bl	80014f4 <MGPIO_SetPinValue>
 8001a06:	2200      	movs	r2, #0
 8001a08:	2104      	movs	r1, #4
 8001a0a:	4610      	mov	r0, r2
 8001a0c:	f7ff fd72 	bl	80014f4 <MGPIO_SetPinValue>
 8001a10:	2200      	movs	r2, #0
 8001a12:	2105      	movs	r1, #5
 8001a14:	4610      	mov	r0, r2
 8001a16:	f7ff fd6d 	bl	80014f4 <MGPIO_SetPinValue>
 8001a1a:	2200      	movs	r2, #0
 8001a1c:	2106      	movs	r1, #6
 8001a1e:	4610      	mov	r0, r2
 8001a20:	f7ff fd68 	bl	80014f4 <MGPIO_SetPinValue>
 8001a24:	2200      	movs	r2, #0
 8001a26:	2107      	movs	r1, #7
 8001a28:	4610      	mov	r0, r2
 8001a2a:	f7ff fd63 	bl	80014f4 <MGPIO_SetPinValue>
 8001a2e:	2200      	movs	r2, #0
 8001a30:	4611      	mov	r1, r2
 8001a32:	2001      	movs	r0, #1
 8001a34:	f7ff fc80 	bl	8001338 <MGPIO_SetMode>
 8001a38:	2201      	movs	r2, #1
 8001a3a:	2100      	movs	r1, #0
 8001a3c:	4610      	mov	r0, r2
 8001a3e:	f7ff fd19 	bl	8001474 <MGPIO_SetInputPinMode>
 8001a42:	2200      	movs	r2, #0
 8001a44:	2101      	movs	r1, #1
 8001a46:	4608      	mov	r0, r1
 8001a48:	f7ff fc76 	bl	8001338 <MGPIO_SetMode>
 8001a4c:	2201      	movs	r2, #1
 8001a4e:	4611      	mov	r1, r2
 8001a50:	4610      	mov	r0, r2
 8001a52:	f7ff fd0f 	bl	8001474 <MGPIO_SetInputPinMode>
 8001a56:	2006      	movs	r0, #6
 8001a58:	f7ff fd96 	bl	8001588 <MNVIC_VoidSetInterruptGroupMode>
 8001a5c:	2200      	movs	r2, #0
 8001a5e:	2101      	movs	r1, #1
 8001a60:	2006      	movs	r0, #6
 8001a62:	f7ff fda5 	bl	80015b0 <MNVIC_VoidSetInterruptPriority>
 8001a66:	2200      	movs	r2, #0
 8001a68:	4611      	mov	r1, r2
 8001a6a:	2007      	movs	r0, #7
 8001a6c:	f7ff fda0 	bl	80015b0 <MNVIC_VoidSetInterruptPriority>
 8001a70:	2006      	movs	r0, #6
 8001a72:	f7ff fd79 	bl	8001568 <MNVIC_VoidEnbleInterrupt>
 8001a76:	2007      	movs	r0, #7
 8001a78:	f7ff fd76 	bl	8001568 <MNVIC_VoidEnbleInterrupt>
 8001a7c:	4910      	ldr	r1, [pc, #64]	; (8001ac0 <main+0x1b4>)
 8001a7e:	2000      	movs	r0, #0
 8001a80:	f7ff fb58 	bl	8001134 <MEXTI_voidSetCallBack>
 8001a84:	490f      	ldr	r1, [pc, #60]	; (8001ac4 <main+0x1b8>)
 8001a86:	2001      	movs	r0, #1
 8001a88:	f7ff fb54 	bl	8001134 <MEXTI_voidSetCallBack>
 8001a8c:	2101      	movs	r1, #1
 8001a8e:	2000      	movs	r0, #0
 8001a90:	f7ff fb02 	bl	8001098 <MEXTI_voidInterruptSetPort>
 8001a94:	2101      	movs	r1, #1
 8001a96:	4608      	mov	r0, r1
 8001a98:	f7ff fafe 	bl	8001098 <MEXTI_voidInterruptSetPort>
 8001a9c:	2102      	movs	r1, #2
 8001a9e:	2000      	movs	r0, #0
 8001aa0:	f7ff fb28 	bl	80010f4 <MEXTI_voidInterruptTrigger>
 8001aa4:	2102      	movs	r1, #2
 8001aa6:	2001      	movs	r0, #1
 8001aa8:	f7ff fb24 	bl	80010f4 <MEXTI_voidInterruptTrigger>
 8001aac:	2100      	movs	r1, #0
 8001aae:	4608      	mov	r0, r1
 8001ab0:	f7ff fb0a 	bl	80010c8 <MEXTI_voidInterruptEnableDisable>
 8001ab4:	2100      	movs	r1, #0
 8001ab6:	2001      	movs	r0, #1
 8001ab8:	f7ff fb06 	bl	80010c8 <MEXTI_voidInterruptEnableDisable>
 8001abc:	e7fe      	b.n	8001abc <main+0x1b0>
 8001abe:	bf00      	nop
 8001ac0:	080018b1 	stmdaeq	r0, {r0, r4, r5, r7, fp, ip}
 8001ac4:	080017cd 	stmdaeq	r0, {r0, r2, r3, r6, r7, r8, r9, sl, ip}

08001ac8 <HAL_MspInit>:
 8001ac8:	4770      	bx	lr
	...

08001acc <__aeabi_uldivmod>:
 8001acc:	b953      	cbnz	r3, 8001ae4 <__aeabi_uldivmod+0x18>
 8001ace:	b94a      	cbnz	r2, 8001ae4 <__aeabi_uldivmod+0x18>
 8001ad0:	2900      	cmp	r1, #0
 8001ad2:	bf08      	it	eq
 8001ad4:	2800      	cmpeq	r0, #0
 8001ad6:	bf1c      	itt	ne
 8001ad8:	f04f 31ff 	movne.w	r1, #4294967295
 8001adc:	f04f 30ff 	movne.w	r0, #4294967295
 8001ae0:	f000 b96a 	b.w	8001db8 <__aeabi_idiv0>
 8001ae4:	f1ad 0c08 	sub.w	ip, sp, #8
 8001ae8:	e96d ce04 	strd	ip, lr, [sp, #-16]!
 8001aec:	f000 f806 	bl	8001afc <__udivmoddi4>
 8001af0:	f8dd e004 	ldr.w	lr, [sp, #4]
 8001af4:	e9dd 2302 	ldrd	r2, r3, [sp, #8]
 8001af8:	b004      	add	sp, #16
 8001afa:	4770      	bx	lr

08001afc <__udivmoddi4>:
 8001afc:	e92d 47f0 	stmdb	sp!, {r4, r5, r6, r7, r8, r9, sl, lr}
 8001b00:	9d08      	ldr	r5, [sp, #32]
 8001b02:	460c      	mov	r4, r1
 8001b04:	2b00      	cmp	r3, #0
 8001b06:	d14e      	bne.n	8001ba6 <__udivmoddi4+0xaa>
 8001b08:	4694      	mov	ip, r2
 8001b0a:	458c      	cmp	ip, r1
 8001b0c:	4686      	mov	lr, r0
 8001b0e:	fab2 f282 	clz	r2, r2
 8001b12:	d962      	bls.n	8001bda <__udivmoddi4+0xde>
 8001b14:	b14a      	cbz	r2, 8001b2a <__udivmoddi4+0x2e>
 8001b16:	f1c2 0320 	rsb	r3, r2, #32
 8001b1a:	4091      	lsls	r1, r2
 8001b1c:	fa20 f303 	lsr.w	r3, r0, r3
 8001b20:	fa0c fc02 	lsl.w	ip, ip, r2
 8001b24:	4319      	orrs	r1, r3
 8001b26:	fa00 fe02 	lsl.w	lr, r0, r2
 8001b2a:	ea4f 471c 	mov.w	r7, ip, lsr #16
 8001b2e:	fa1f f68c 	uxth.w	r6, ip
 8001b32:	fbb1 f4f7 	udiv	r4, r1, r7
 8001b36:	ea4f 431e 	mov.w	r3, lr, lsr #16
 8001b3a:	fb07 1114 	mls	r1, r7, r4, r1
 8001b3e:	ea43 4301 	orr.w	r3, r3, r1, lsl #16
 8001b42:	fb04 f106 	mul.w	r1, r4, r6
 8001b46:	4299      	cmp	r1, r3
 8001b48:	d90a      	bls.n	8001b60 <__udivmoddi4+0x64>
 8001b4a:	eb1c 0303 	adds.w	r3, ip, r3
 8001b4e:	f104 30ff 	add.w	r0, r4, #4294967295
 8001b52:	f080 8112 	bcs.w	8001d7a <__udivmoddi4+0x27e>
 8001b56:	4299      	cmp	r1, r3
 8001b58:	f240 810f 	bls.w	8001d7a <__udivmoddi4+0x27e>
 8001b5c:	3c02      	subs	r4, #2
 8001b5e:	4463      	add	r3, ip
 8001b60:	1a59      	subs	r1, r3, r1
 8001b62:	fa1f f38e 	uxth.w	r3, lr
 8001b66:	fbb1 f0f7 	udiv	r0, r1, r7
 8001b6a:	fb07 1110 	mls	r1, r7, r0, r1
 8001b6e:	ea43 4301 	orr.w	r3, r3, r1, lsl #16
 8001b72:	fb00 f606 	mul.w	r6, r0, r6
 8001b76:	429e      	cmp	r6, r3
 8001b78:	d90a      	bls.n	8001b90 <__udivmoddi4+0x94>
 8001b7a:	eb1c 0303 	adds.w	r3, ip, r3
 8001b7e:	f100 31ff 	add.w	r1, r0, #4294967295
 8001b82:	f080 80fc 	bcs.w	8001d7e <__udivmoddi4+0x282>
 8001b86:	429e      	cmp	r6, r3
 8001b88:	f240 80f9 	bls.w	8001d7e <__udivmoddi4+0x282>
 8001b8c:	4463      	add	r3, ip
 8001b8e:	3802      	subs	r0, #2
 8001b90:	1b9b      	subs	r3, r3, r6
 8001b92:	ea40 4004 	orr.w	r0, r0, r4, lsl #16
 8001b96:	2100      	movs	r1, #0
 8001b98:	b11d      	cbz	r5, 8001ba2 <__udivmoddi4+0xa6>
 8001b9a:	40d3      	lsrs	r3, r2
 8001b9c:	2200      	movs	r2, #0
 8001b9e:	e9c5 3200 	strd	r3, r2, [r5]
 8001ba2:	e8bd 87f0 	ldmia.w	sp!, {r4, r5, r6, r7, r8, r9, sl, pc}
 8001ba6:	428b      	cmp	r3, r1
 8001ba8:	d905      	bls.n	8001bb6 <__udivmoddi4+0xba>
 8001baa:	b10d      	cbz	r5, 8001bb0 <__udivmoddi4+0xb4>
 8001bac:	e9c5 0100 	strd	r0, r1, [r5]
 8001bb0:	2100      	movs	r1, #0
 8001bb2:	4608      	mov	r0, r1
 8001bb4:	e7f5      	b.n	8001ba2 <__udivmoddi4+0xa6>
 8001bb6:	fab3 f183 	clz	r1, r3
 8001bba:	2900      	cmp	r1, #0
 8001bbc:	d146      	bne.n	8001c4c <__udivmoddi4+0x150>
 8001bbe:	42a3      	cmp	r3, r4
 8001bc0:	d302      	bcc.n	8001bc8 <__udivmoddi4+0xcc>
 8001bc2:	4290      	cmp	r0, r2
 8001bc4:	f0c0 80f0 	bcc.w	8001da8 <__udivmoddi4+0x2ac>
 8001bc8:	1a86      	subs	r6, r0, r2
 8001bca:	eb64 0303 	sbc.w	r3, r4, r3
 8001bce:	2001      	movs	r0, #1
 8001bd0:	2d00      	cmp	r5, #0
 8001bd2:	d0e6      	beq.n	8001ba2 <__udivmoddi4+0xa6>
 8001bd4:	e9c5 6300 	strd	r6, r3, [r5]
 8001bd8:	e7e3      	b.n	8001ba2 <__udivmoddi4+0xa6>
 8001bda:	2a00      	cmp	r2, #0
 8001bdc:	f040 8090 	bne.w	8001d00 <__udivmoddi4+0x204>
 8001be0:	eba1 040c 	sub.w	r4, r1, ip
 8001be4:	ea4f 481c 	mov.w	r8, ip, lsr #16
 8001be8:	fa1f f78c 	uxth.w	r7, ip
 8001bec:	2101      	movs	r1, #1
 8001bee:	fbb4 f6f8 	udiv	r6, r4, r8
 8001bf2:	ea4f 431e 	mov.w	r3, lr, lsr #16
 8001bf6:	fb08 4416 	mls	r4, r8, r6, r4
 8001bfa:	ea43 4304 	orr.w	r3, r3, r4, lsl #16
 8001bfe:	fb07 f006 	mul.w	r0, r7, r6
 8001c02:	4298      	cmp	r0, r3
 8001c04:	d908      	bls.n	8001c18 <__udivmoddi4+0x11c>
 8001c06:	eb1c 0303 	adds.w	r3, ip, r3
 8001c0a:	f106 34ff 	add.w	r4, r6, #4294967295
 8001c0e:	d202      	bcs.n	8001c16 <__udivmoddi4+0x11a>
 8001c10:	4298      	cmp	r0, r3
 8001c12:	f200 80cd 	bhi.w	8001db0 <__udivmoddi4+0x2b4>
 8001c16:	4626      	mov	r6, r4
 8001c18:	1a1c      	subs	r4, r3, r0
 8001c1a:	fa1f f38e 	uxth.w	r3, lr
 8001c1e:	fbb4 f0f8 	udiv	r0, r4, r8
 8001c22:	fb08 4410 	mls	r4, r8, r0, r4
 8001c26:	ea43 4304 	orr.w	r3, r3, r4, lsl #16
 8001c2a:	fb00 f707 	mul.w	r7, r0, r7
 8001c2e:	429f      	cmp	r7, r3
 8001c30:	d908      	bls.n	8001c44 <__udivmoddi4+0x148>
 8001c32:	eb1c 0303 	adds.w	r3, ip, r3
 8001c36:	f100 34ff 	add.w	r4, r0, #4294967295
 8001c3a:	d202      	bcs.n	8001c42 <__udivmoddi4+0x146>
 8001c3c:	429f      	cmp	r7, r3
 8001c3e:	f200 80b0 	bhi.w	8001da2 <__udivmoddi4+0x2a6>
 8001c42:	4620      	mov	r0, r4
 8001c44:	1bdb      	subs	r3, r3, r7
 8001c46:	ea40 4006 	orr.w	r0, r0, r6, lsl #16
 8001c4a:	e7a5      	b.n	8001b98 <__udivmoddi4+0x9c>
 8001c4c:	f1c1 0620 	rsb	r6, r1, #32
 8001c50:	408b      	lsls	r3, r1
 8001c52:	fa22 f706 	lsr.w	r7, r2, r6
 8001c56:	431f      	orrs	r7, r3
 8001c58:	fa20 fc06 	lsr.w	ip, r0, r6
 8001c5c:	fa04 f301 	lsl.w	r3, r4, r1
 8001c60:	ea43 030c 	orr.w	r3, r3, ip
 8001c64:	40f4      	lsrs	r4, r6
 8001c66:	fa00 f801 	lsl.w	r8, r0, r1
 8001c6a:	0c38      	lsrs	r0, r7, #16
 8001c6c:	ea4f 4913 	mov.w	r9, r3, lsr #16
 8001c70:	fbb4 fef0 	udiv	lr, r4, r0
 8001c74:	fa1f fc87 	uxth.w	ip, r7
 8001c78:	fb00 441e 	mls	r4, r0, lr, r4
 8001c7c:	ea49 4404 	orr.w	r4, r9, r4, lsl #16
 8001c80:	fb0e f90c 	mul.w	r9, lr, ip
 8001c84:	45a1      	cmp	r9, r4
 8001c86:	fa02 f201 	lsl.w	r2, r2, r1
 8001c8a:	d90a      	bls.n	8001ca2 <__udivmoddi4+0x1a6>
 8001c8c:	193c      	adds	r4, r7, r4
 8001c8e:	f10e 3aff 	add.w	sl, lr, #4294967295
 8001c92:	f080 8084 	bcs.w	8001d9e <__udivmoddi4+0x2a2>
 8001c96:	45a1      	cmp	r9, r4
 8001c98:	f240 8081 	bls.w	8001d9e <__udivmoddi4+0x2a2>
 8001c9c:	f1ae 0e02 	sub.w	lr, lr, #2
 8001ca0:	443c      	add	r4, r7
 8001ca2:	eba4 0409 	sub.w	r4, r4, r9
 8001ca6:	fa1f f983 	uxth.w	r9, r3
 8001caa:	fbb4 f3f0 	udiv	r3, r4, r0
 8001cae:	fb00 4413 	mls	r4, r0, r3, r4
 8001cb2:	ea49 4404 	orr.w	r4, r9, r4, lsl #16
 8001cb6:	fb03 fc0c 	mul.w	ip, r3, ip
 8001cba:	45a4      	cmp	ip, r4
 8001cbc:	d907      	bls.n	8001cce <__udivmoddi4+0x1d2>
 8001cbe:	193c      	adds	r4, r7, r4
 8001cc0:	f103 30ff 	add.w	r0, r3, #4294967295
 8001cc4:	d267      	bcs.n	8001d96 <__udivmoddi4+0x29a>
 8001cc6:	45a4      	cmp	ip, r4
 8001cc8:	d965      	bls.n	8001d96 <__udivmoddi4+0x29a>
 8001cca:	3b02      	subs	r3, #2
 8001ccc:	443c      	add	r4, r7
 8001cce:	ea43 400e 	orr.w	r0, r3, lr, lsl #16
 8001cd2:	fba0 9302 	umull	r9, r3, r0, r2
 8001cd6:	eba4 040c 	sub.w	r4, r4, ip
 8001cda:	429c      	cmp	r4, r3
 8001cdc:	46ce      	mov	lr, r9
 8001cde:	469c      	mov	ip, r3
 8001ce0:	d351      	bcc.n	8001d86 <__udivmoddi4+0x28a>
 8001ce2:	d04e      	beq.n	8001d82 <__udivmoddi4+0x286>
 8001ce4:	b155      	cbz	r5, 8001cfc <__udivmoddi4+0x200>
 8001ce6:	ebb8 030e 	subs.w	r3, r8, lr
 8001cea:	eb64 040c 	sbc.w	r4, r4, ip
 8001cee:	fa04 f606 	lsl.w	r6, r4, r6
 8001cf2:	40cb      	lsrs	r3, r1
 8001cf4:	431e      	orrs	r6, r3
 8001cf6:	40cc      	lsrs	r4, r1
 8001cf8:	e9c5 6400 	strd	r6, r4, [r5]
 8001cfc:	2100      	movs	r1, #0
 8001cfe:	e750      	b.n	8001ba2 <__udivmoddi4+0xa6>
 8001d00:	f1c2 0320 	rsb	r3, r2, #32
 8001d04:	fa20 f103 	lsr.w	r1, r0, r3
 8001d08:	fa0c fc02 	lsl.w	ip, ip, r2
 8001d0c:	fa24 f303 	lsr.w	r3, r4, r3
 8001d10:	4094      	lsls	r4, r2
 8001d12:	430c      	orrs	r4, r1
 8001d14:	ea4f 481c 	mov.w	r8, ip, lsr #16
 8001d18:	fa00 fe02 	lsl.w	lr, r0, r2
 8001d1c:	fa1f f78c 	uxth.w	r7, ip
 8001d20:	fbb3 f0f8 	udiv	r0, r3, r8
 8001d24:	fb08 3110 	mls	r1, r8, r0, r3
 8001d28:	0c23      	lsrs	r3, r4, #16
 8001d2a:	ea43 4301 	orr.w	r3, r3, r1, lsl #16
 8001d2e:	fb00 f107 	mul.w	r1, r0, r7
 8001d32:	4299      	cmp	r1, r3
 8001d34:	d908      	bls.n	8001d48 <__udivmoddi4+0x24c>
 8001d36:	eb1c 0303 	adds.w	r3, ip, r3
 8001d3a:	f100 36ff 	add.w	r6, r0, #4294967295
 8001d3e:	d22c      	bcs.n	8001d9a <__udivmoddi4+0x29e>
 8001d40:	4299      	cmp	r1, r3
 8001d42:	d92a      	bls.n	8001d9a <__udivmoddi4+0x29e>
 8001d44:	3802      	subs	r0, #2
 8001d46:	4463      	add	r3, ip
 8001d48:	1a5b      	subs	r3, r3, r1
 8001d4a:	b2a4      	uxth	r4, r4
 8001d4c:	fbb3 f1f8 	udiv	r1, r3, r8
 8001d50:	fb08 3311 	mls	r3, r8, r1, r3
 8001d54:	ea44 4403 	orr.w	r4, r4, r3, lsl #16
 8001d58:	fb01 f307 	mul.w	r3, r1, r7
 8001d5c:	42a3      	cmp	r3, r4
 8001d5e:	d908      	bls.n	8001d72 <__udivmoddi4+0x276>
 8001d60:	eb1c 0404 	adds.w	r4, ip, r4
 8001d64:	f101 36ff 	add.w	r6, r1, #4294967295
 8001d68:	d213      	bcs.n	8001d92 <__udivmoddi4+0x296>
 8001d6a:	42a3      	cmp	r3, r4
 8001d6c:	d911      	bls.n	8001d92 <__udivmoddi4+0x296>
 8001d6e:	3902      	subs	r1, #2
 8001d70:	4464      	add	r4, ip
 8001d72:	1ae4      	subs	r4, r4, r3
 8001d74:	ea41 4100 	orr.w	r1, r1, r0, lsl #16
 8001d78:	e739      	b.n	8001bee <__udivmoddi4+0xf2>
 8001d7a:	4604      	mov	r4, r0
 8001d7c:	e6f0      	b.n	8001b60 <__udivmoddi4+0x64>
 8001d7e:	4608      	mov	r0, r1
 8001d80:	e706      	b.n	8001b90 <__udivmoddi4+0x94>
 8001d82:	45c8      	cmp	r8, r9
 8001d84:	d2ae      	bcs.n	8001ce4 <__udivmoddi4+0x1e8>
 8001d86:	ebb9 0e02 	subs.w	lr, r9, r2
 8001d8a:	eb63 0c07 	sbc.w	ip, r3, r7
 8001d8e:	3801      	subs	r0, #1
 8001d90:	e7a8      	b.n	8001ce4 <__udivmoddi4+0x1e8>
 8001d92:	4631      	mov	r1, r6
 8001d94:	e7ed      	b.n	8001d72 <__udivmoddi4+0x276>
 8001d96:	4603      	mov	r3, r0
 8001d98:	e799      	b.n	8001cce <__udivmoddi4+0x1d2>
 8001d9a:	4630      	mov	r0, r6
 8001d9c:	e7d4      	b.n	8001d48 <__udivmoddi4+0x24c>
 8001d9e:	46d6      	mov	lr, sl
 8001da0:	e77f      	b.n	8001ca2 <__udivmoddi4+0x1a6>
 8001da2:	4463      	add	r3, ip
 8001da4:	3802      	subs	r0, #2
 8001da6:	e74d      	b.n	8001c44 <__udivmoddi4+0x148>
 8001da8:	4606      	mov	r6, r0
 8001daa:	4623      	mov	r3, r4
 8001dac:	4608      	mov	r0, r1
 8001dae:	e70f      	b.n	8001bd0 <__udivmoddi4+0xd4>
 8001db0:	3e02      	subs	r6, #2
 8001db2:	4463      	add	r3, ip
 8001db4:	e730      	b.n	8001c18 <__udivmoddi4+0x11c>
 8001db6:	bf00      	nop

08001db8 <__aeabi_idiv0>:
 8001db8:	4770      	bx	lr
 8001dba:	bf00      	nop

08001dbc <_vsniprintf_r>:
 8001dbc:	b530      	push	{r4, r5, lr}
 8001dbe:	4614      	mov	r4, r2
 8001dc0:	2c00      	cmp	r4, #0
 8001dc2:	b09b      	sub	sp, #108	; 0x6c
 8001dc4:	4605      	mov	r5, r0
 8001dc6:	461a      	mov	r2, r3
 8001dc8:	da05      	bge.n	8001dd6 <_vsniprintf_r+0x1a>
 8001dca:	238b      	movs	r3, #139	; 0x8b
 8001dcc:	6003      	str	r3, [r0, #0]
 8001dce:	f04f 30ff 	mov.w	r0, #4294967295
 8001dd2:	b01b      	add	sp, #108	; 0x6c
 8001dd4:	bd30      	pop	{r4, r5, pc}
 8001dd6:	f44f 7302 	mov.w	r3, #520	; 0x208
 8001dda:	f8ad 300c 	strh.w	r3, [sp, #12]
 8001dde:	bf14      	ite	ne
 8001de0:	f104 33ff 	addne.w	r3, r4, #4294967295
 8001de4:	4623      	moveq	r3, r4
 8001de6:	9302      	str	r3, [sp, #8]
 8001de8:	9305      	str	r3, [sp, #20]
 8001dea:	f64f 73ff 	movw	r3, #65535	; 0xffff
 8001dee:	9100      	str	r1, [sp, #0]
 8001df0:	9104      	str	r1, [sp, #16]
 8001df2:	f8ad 300e 	strh.w	r3, [sp, #14]
 8001df6:	4669      	mov	r1, sp
 8001df8:	9b1e      	ldr	r3, [sp, #120]	; 0x78
 8001dfa:	f000 f87b 	bl	8001ef4 <_svfiprintf_r>
 8001dfe:	1c43      	adds	r3, r0, #1
 8001e00:	bfbc      	itt	lt
 8001e02:	238b      	movlt	r3, #139	; 0x8b
 8001e04:	602b      	strlt	r3, [r5, #0]
 8001e06:	2c00      	cmp	r4, #0
 8001e08:	d0e3      	beq.n	8001dd2 <_vsniprintf_r+0x16>
 8001e0a:	9b00      	ldr	r3, [sp, #0]
 8001e0c:	2200      	movs	r2, #0
 8001e0e:	701a      	strb	r2, [r3, #0]
 8001e10:	e7df      	b.n	8001dd2 <_vsniprintf_r+0x16>
	...

08001e14 <vsniprintf>:
 8001e14:	b507      	push	{r0, r1, r2, lr}
 8001e16:	9300      	str	r3, [sp, #0]
 8001e18:	4613      	mov	r3, r2
 8001e1a:	460a      	mov	r2, r1
 8001e1c:	4601      	mov	r1, r0
 8001e1e:	4803      	ldr	r0, [pc, #12]	; (8001e2c <vsniprintf+0x18>)
 8001e20:	6800      	ldr	r0, [r0, #0]
 8001e22:	f7ff ffcb 	bl	8001dbc <_vsniprintf_r>
 8001e26:	b003      	add	sp, #12
 8001e28:	f85d fb04 	ldr.w	pc, [sp], #4
 8001e2c:	20000018 	andcs	r0, r0, r8, lsl r0

08001e30 <__errno>:
 8001e30:	4b01      	ldr	r3, [pc, #4]	; (8001e38 <__errno+0x8>)
 8001e32:	6818      	ldr	r0, [r3, #0]
 8001e34:	4770      	bx	lr
 8001e36:	bf00      	nop
 8001e38:	20000018 	andcs	r0, r0, r8, lsl r0

08001e3c <__ssputs_r>:
 8001e3c:	e92d 47f0 	stmdb	sp!, {r4, r5, r6, r7, r8, r9, sl, lr}
 8001e40:	688e      	ldr	r6, [r1, #8]
 8001e42:	461f      	mov	r7, r3
 8001e44:	42be      	cmp	r6, r7
 8001e46:	680b      	ldr	r3, [r1, #0]
 8001e48:	4682      	mov	sl, r0
 8001e4a:	460c      	mov	r4, r1
 8001e4c:	4690      	mov	r8, r2
 8001e4e:	d82d      	bhi.n	8001eac <__ssputs_r+0x70>
 8001e50:	f9b1 200c 	ldrsh.w	r2, [r1, #12]
 8001e54:	f412 6f90 	tst.w	r2, #1152	; 0x480
 8001e58:	d026      	beq.n	8001ea8 <__ssputs_r+0x6c>
 8001e5a:	6965      	ldr	r5, [r4, #20]
 8001e5c:	6909      	ldr	r1, [r1, #16]
 8001e5e:	eb05 0545 	add.w	r5, r5, r5, lsl #1
 8001e62:	eba3 0901 	sub.w	r9, r3, r1
 8001e66:	eb05 75d5 	add.w	r5, r5, r5, lsr #31
 8001e6a:	1c7b      	adds	r3, r7, #1
 8001e6c:	444b      	add	r3, r9
 8001e6e:	106d      	asrs	r5, r5, #1
 8001e70:	429d      	cmp	r5, r3
 8001e72:	bf38      	it	cc
 8001e74:	461d      	movcc	r5, r3
 8001e76:	0553      	lsls	r3, r2, #21
 8001e78:	d527      	bpl.n	8001eca <__ssputs_r+0x8e>
 8001e7a:	4629      	mov	r1, r5
 8001e7c:	f000 fbba 	bl	80025f4 <_malloc_r>
 8001e80:	4606      	mov	r6, r0
 8001e82:	b360      	cbz	r0, 8001ede <__ssputs_r+0xa2>
 8001e84:	6921      	ldr	r1, [r4, #16]
 8001e86:	464a      	mov	r2, r9
 8001e88:	f000 fb3a 	bl	8002500 <memcpy>
 8001e8c:	89a3      	ldrh	r3, [r4, #12]
 8001e8e:	f423 6390 	bic.w	r3, r3, #1152	; 0x480
 8001e92:	f043 0380 	orr.w	r3, r3, #128	; 0x80
 8001e96:	81a3      	strh	r3, [r4, #12]
 8001e98:	6126      	str	r6, [r4, #16]
 8001e9a:	6165      	str	r5, [r4, #20]
 8001e9c:	444e      	add	r6, r9
 8001e9e:	eba5 0509 	sub.w	r5, r5, r9
 8001ea2:	6026      	str	r6, [r4, #0]
 8001ea4:	60a5      	str	r5, [r4, #8]
 8001ea6:	463e      	mov	r6, r7
 8001ea8:	42be      	cmp	r6, r7
 8001eaa:	d900      	bls.n	8001eae <__ssputs_r+0x72>
 8001eac:	463e      	mov	r6, r7
 8001eae:	6820      	ldr	r0, [r4, #0]
 8001eb0:	4632      	mov	r2, r6
 8001eb2:	4641      	mov	r1, r8
 8001eb4:	f000 fab4 	bl	8002420 <memmove>
 8001eb8:	68a3      	ldr	r3, [r4, #8]
 8001eba:	1b9b      	subs	r3, r3, r6
 8001ebc:	60a3      	str	r3, [r4, #8]
 8001ebe:	6823      	ldr	r3, [r4, #0]
 8001ec0:	4433      	add	r3, r6
 8001ec2:	6023      	str	r3, [r4, #0]
 8001ec4:	2000      	movs	r0, #0
 8001ec6:	e8bd 87f0 	ldmia.w	sp!, {r4, r5, r6, r7, r8, r9, sl, pc}
 8001eca:	462a      	mov	r2, r5
 8001ecc:	f000 fc1e 	bl	800270c <_realloc_r>
 8001ed0:	4606      	mov	r6, r0
 8001ed2:	2800      	cmp	r0, #0
 8001ed4:	d1e0      	bne.n	8001e98 <__ssputs_r+0x5c>
 8001ed6:	6921      	ldr	r1, [r4, #16]
 8001ed8:	4650      	mov	r0, sl
 8001eda:	f000 fb1f 	bl	800251c <_free_r>
 8001ede:	230c      	movs	r3, #12
 8001ee0:	f8ca 3000 	str.w	r3, [sl]
 8001ee4:	89a3      	ldrh	r3, [r4, #12]
 8001ee6:	f043 0340 	orr.w	r3, r3, #64	; 0x40
 8001eea:	81a3      	strh	r3, [r4, #12]
 8001eec:	f04f 30ff 	mov.w	r0, #4294967295
 8001ef0:	e7e9      	b.n	8001ec6 <__ssputs_r+0x8a>
	...

08001ef4 <_svfiprintf_r>:
 8001ef4:	e92d 4ff0 	stmdb	sp!, {r4, r5, r6, r7, r8, r9, sl, fp, lr}
 8001ef8:	4698      	mov	r8, r3
 8001efa:	898b      	ldrh	r3, [r1, #12]
 8001efc:	061b      	lsls	r3, r3, #24
 8001efe:	b09d      	sub	sp, #116	; 0x74
 8001f00:	4607      	mov	r7, r0
 8001f02:	460d      	mov	r5, r1
 8001f04:	4614      	mov	r4, r2
 8001f06:	d510      	bpl.n	8001f2a <_svfiprintf_r+0x36>
 8001f08:	690b      	ldr	r3, [r1, #16]
 8001f0a:	b973      	cbnz	r3, 8001f2a <_svfiprintf_r+0x36>
 8001f0c:	2140      	movs	r1, #64	; 0x40
 8001f0e:	f000 fb71 	bl	80025f4 <_malloc_r>
 8001f12:	6028      	str	r0, [r5, #0]
 8001f14:	6128      	str	r0, [r5, #16]
 8001f16:	b930      	cbnz	r0, 8001f26 <_svfiprintf_r+0x32>
 8001f18:	230c      	movs	r3, #12
 8001f1a:	603b      	str	r3, [r7, #0]
 8001f1c:	f04f 30ff 	mov.w	r0, #4294967295
 8001f20:	b01d      	add	sp, #116	; 0x74
 8001f22:	e8bd 8ff0 	ldmia.w	sp!, {r4, r5, r6, r7, r8, r9, sl, fp, pc}
 8001f26:	2340      	movs	r3, #64	; 0x40
 8001f28:	616b      	str	r3, [r5, #20]
 8001f2a:	2300      	movs	r3, #0
 8001f2c:	9309      	str	r3, [sp, #36]	; 0x24
 8001f2e:	2320      	movs	r3, #32
 8001f30:	f88d 3029 	strb.w	r3, [sp, #41]	; 0x29
 8001f34:	f8cd 800c 	str.w	r8, [sp, #12]
 8001f38:	2330      	movs	r3, #48	; 0x30
 8001f3a:	f8df 819c 	ldr.w	r8, [pc, #412]	; 80020d8 <_svfiprintf_r+0x1e4>
 8001f3e:	f88d 302a 	strb.w	r3, [sp, #42]	; 0x2a
 8001f42:	f04f 0901 	mov.w	r9, #1
 8001f46:	4623      	mov	r3, r4
 8001f48:	469a      	mov	sl, r3
 8001f4a:	f813 2b01 	ldrb.w	r2, [r3], #1
 8001f4e:	b10a      	cbz	r2, 8001f54 <_svfiprintf_r+0x60>
 8001f50:	2a25      	cmp	r2, #37	; 0x25
 8001f52:	d1f9      	bne.n	8001f48 <_svfiprintf_r+0x54>
 8001f54:	ebba 0b04 	subs.w	fp, sl, r4
 8001f58:	d00b      	beq.n	8001f72 <_svfiprintf_r+0x7e>
 8001f5a:	465b      	mov	r3, fp
 8001f5c:	4622      	mov	r2, r4
 8001f5e:	4629      	mov	r1, r5
 8001f60:	4638      	mov	r0, r7
 8001f62:	f7ff ff6b 	bl	8001e3c <__ssputs_r>
 8001f66:	3001      	adds	r0, #1
 8001f68:	f000 80a7 	beq.w	80020ba <_svfiprintf_r+0x1c6>
 8001f6c:	9a09      	ldr	r2, [sp, #36]	; 0x24
 8001f6e:	445a      	add	r2, fp
 8001f70:	9209      	str	r2, [sp, #36]	; 0x24
 8001f72:	f89a 3000 	ldrb.w	r3, [sl]
 8001f76:	2b00      	cmp	r3, #0
 8001f78:	f000 809f 	beq.w	80020ba <_svfiprintf_r+0x1c6>
 8001f7c:	2300      	movs	r3, #0
 8001f7e:	f04f 32ff 	mov.w	r2, #4294967295
 8001f82:	e9cd 2305 	strd	r2, r3, [sp, #20]
 8001f86:	f10a 0a01 	add.w	sl, sl, #1
 8001f8a:	9304      	str	r3, [sp, #16]
 8001f8c:	9307      	str	r3, [sp, #28]
 8001f8e:	f88d 3053 	strb.w	r3, [sp, #83]	; 0x53
 8001f92:	931a      	str	r3, [sp, #104]	; 0x68
 8001f94:	4654      	mov	r4, sl
 8001f96:	2205      	movs	r2, #5
 8001f98:	f814 1b01 	ldrb.w	r1, [r4], #1
 8001f9c:	484e      	ldr	r0, [pc, #312]	; (80020d8 <_svfiprintf_r+0x1e4>)
 8001f9e:	f000 fa5f 	bl	8002460 <memchr>
 8001fa2:	9a04      	ldr	r2, [sp, #16]
 8001fa4:	b9d8      	cbnz	r0, 8001fde <_svfiprintf_r+0xea>
 8001fa6:	06d0      	lsls	r0, r2, #27
 8001fa8:	bf44      	itt	mi
 8001faa:	2320      	movmi	r3, #32
 8001fac:	f88d 3053 	strbmi.w	r3, [sp, #83]	; 0x53
 8001fb0:	0711      	lsls	r1, r2, #28
 8001fb2:	bf44      	itt	mi
 8001fb4:	232b      	movmi	r3, #43	; 0x2b
 8001fb6:	f88d 3053 	strbmi.w	r3, [sp, #83]	; 0x53
 8001fba:	f89a 3000 	ldrb.w	r3, [sl]
 8001fbe:	2b2a      	cmp	r3, #42	; 0x2a
 8001fc0:	d015      	beq.n	8001fee <_svfiprintf_r+0xfa>
 8001fc2:	9a07      	ldr	r2, [sp, #28]
 8001fc4:	4654      	mov	r4, sl
 8001fc6:	2000      	movs	r0, #0
 8001fc8:	f04f 0c0a 	mov.w	ip, #10
 8001fcc:	4621      	mov	r1, r4
 8001fce:	f811 3b01 	ldrb.w	r3, [r1], #1
 8001fd2:	3b30      	subs	r3, #48	; 0x30
 8001fd4:	2b09      	cmp	r3, #9
 8001fd6:	d94b      	bls.n	8002070 <_svfiprintf_r+0x17c>
 8001fd8:	b1b0      	cbz	r0, 8002008 <_svfiprintf_r+0x114>
 8001fda:	9207      	str	r2, [sp, #28]
 8001fdc:	e014      	b.n	8002008 <_svfiprintf_r+0x114>
 8001fde:	eba0 0308 	sub.w	r3, r0, r8
 8001fe2:	fa09 f303 	lsl.w	r3, r9, r3
 8001fe6:	4313      	orrs	r3, r2
 8001fe8:	9304      	str	r3, [sp, #16]
 8001fea:	46a2      	mov	sl, r4
 8001fec:	e7d2      	b.n	8001f94 <_svfiprintf_r+0xa0>
 8001fee:	9b03      	ldr	r3, [sp, #12]
 8001ff0:	1d19      	adds	r1, r3, #4
 8001ff2:	681b      	ldr	r3, [r3, #0]
 8001ff4:	9103      	str	r1, [sp, #12]
 8001ff6:	2b00      	cmp	r3, #0
 8001ff8:	bfbb      	ittet	lt
 8001ffa:	425b      	neglt	r3, r3
 8001ffc:	f042 0202 	orrlt.w	r2, r2, #2
 8002000:	9307      	strge	r3, [sp, #28]
 8002002:	9307      	strlt	r3, [sp, #28]
 8002004:	bfb8      	it	lt
 8002006:	9204      	strlt	r2, [sp, #16]
 8002008:	7823      	ldrb	r3, [r4, #0]
 800200a:	2b2e      	cmp	r3, #46	; 0x2e
 800200c:	d10a      	bne.n	8002024 <_svfiprintf_r+0x130>
 800200e:	7863      	ldrb	r3, [r4, #1]
 8002010:	2b2a      	cmp	r3, #42	; 0x2a
 8002012:	d132      	bne.n	800207a <_svfiprintf_r+0x186>
 8002014:	9b03      	ldr	r3, [sp, #12]
 8002016:	1d1a      	adds	r2, r3, #4
 8002018:	681b      	ldr	r3, [r3, #0]
 800201a:	9203      	str	r2, [sp, #12]
 800201c:	ea43 73e3 	orr.w	r3, r3, r3, asr #31
 8002020:	3402      	adds	r4, #2
 8002022:	9305      	str	r3, [sp, #20]
 8002024:	f8df a0b4 	ldr.w	sl, [pc, #180]	; 80020dc <_svfiprintf_r+0x1e8>
 8002028:	7821      	ldrb	r1, [r4, #0]
 800202a:	2203      	movs	r2, #3
 800202c:	4650      	mov	r0, sl
 800202e:	f000 fa17 	bl	8002460 <memchr>
 8002032:	b138      	cbz	r0, 8002044 <_svfiprintf_r+0x150>
 8002034:	9b04      	ldr	r3, [sp, #16]
 8002036:	eba0 000a 	sub.w	r0, r0, sl
 800203a:	2240      	movs	r2, #64	; 0x40
 800203c:	4082      	lsls	r2, r0
 800203e:	4313      	orrs	r3, r2
 8002040:	3401      	adds	r4, #1
 8002042:	9304      	str	r3, [sp, #16]
 8002044:	f814 1b01 	ldrb.w	r1, [r4], #1
 8002048:	4825      	ldr	r0, [pc, #148]	; (80020e0 <_svfiprintf_r+0x1ec>)
 800204a:	f88d 1028 	strb.w	r1, [sp, #40]	; 0x28
 800204e:	2206      	movs	r2, #6
 8002050:	f000 fa06 	bl	8002460 <memchr>
 8002054:	2800      	cmp	r0, #0
 8002056:	d036      	beq.n	80020c6 <_svfiprintf_r+0x1d2>
 8002058:	4b22      	ldr	r3, [pc, #136]	; (80020e4 <_svfiprintf_r+0x1f0>)
 800205a:	bb1b      	cbnz	r3, 80020a4 <_svfiprintf_r+0x1b0>
 800205c:	9b03      	ldr	r3, [sp, #12]
 800205e:	3307      	adds	r3, #7
 8002060:	f023 0307 	bic.w	r3, r3, #7
 8002064:	3308      	adds	r3, #8
 8002066:	9303      	str	r3, [sp, #12]
 8002068:	9b09      	ldr	r3, [sp, #36]	; 0x24
 800206a:	4433      	add	r3, r6
 800206c:	9309      	str	r3, [sp, #36]	; 0x24
 800206e:	e76a      	b.n	8001f46 <_svfiprintf_r+0x52>
 8002070:	fb0c 3202 	mla	r2, ip, r2, r3
 8002074:	460c      	mov	r4, r1
 8002076:	2001      	movs	r0, #1
 8002078:	e7a8      	b.n	8001fcc <_svfiprintf_r+0xd8>
 800207a:	2300      	movs	r3, #0
 800207c:	3401      	adds	r4, #1
 800207e:	9305      	str	r3, [sp, #20]
 8002080:	4619      	mov	r1, r3
 8002082:	f04f 0c0a 	mov.w	ip, #10
 8002086:	4620      	mov	r0, r4
 8002088:	f810 2b01 	ldrb.w	r2, [r0], #1
 800208c:	3a30      	subs	r2, #48	; 0x30
 800208e:	2a09      	cmp	r2, #9
 8002090:	d903      	bls.n	800209a <_svfiprintf_r+0x1a6>
 8002092:	2b00      	cmp	r3, #0
 8002094:	d0c6      	beq.n	8002024 <_svfiprintf_r+0x130>
 8002096:	9105      	str	r1, [sp, #20]
 8002098:	e7c4      	b.n	8002024 <_svfiprintf_r+0x130>
 800209a:	fb0c 2101 	mla	r1, ip, r1, r2
 800209e:	4604      	mov	r4, r0
 80020a0:	2301      	movs	r3, #1
 80020a2:	e7f0      	b.n	8002086 <_svfiprintf_r+0x192>
 80020a4:	ab03      	add	r3, sp, #12
 80020a6:	9300      	str	r3, [sp, #0]
 80020a8:	462a      	mov	r2, r5
 80020aa:	4b0f      	ldr	r3, [pc, #60]	; (80020e8 <_svfiprintf_r+0x1f4>)
 80020ac:	a904      	add	r1, sp, #16
 80020ae:	4638      	mov	r0, r7
 80020b0:	f3af 8000 	nop.w
 80020b4:	1c42      	adds	r2, r0, #1
 80020b6:	4606      	mov	r6, r0
 80020b8:	d1d6      	bne.n	8002068 <_svfiprintf_r+0x174>
 80020ba:	89ab      	ldrh	r3, [r5, #12]
 80020bc:	065b      	lsls	r3, r3, #25
 80020be:	f53f af2d 	bmi.w	8001f1c <_svfiprintf_r+0x28>
 80020c2:	9809      	ldr	r0, [sp, #36]	; 0x24
 80020c4:	e72c      	b.n	8001f20 <_svfiprintf_r+0x2c>
 80020c6:	ab03      	add	r3, sp, #12
 80020c8:	9300      	str	r3, [sp, #0]
 80020ca:	462a      	mov	r2, r5
 80020cc:	4b06      	ldr	r3, [pc, #24]	; (80020e8 <_svfiprintf_r+0x1f4>)
 80020ce:	a904      	add	r1, sp, #16
 80020d0:	4638      	mov	r0, r7
 80020d2:	f000 f879 	bl	80021c8 <_printf_i>
 80020d6:	e7ed      	b.n	80020b4 <_svfiprintf_r+0x1c0>
 80020d8:	08002985 	stmdaeq	r0, {r0, r2, r7, r8, fp, sp}
 80020dc:	0800298b 	stmdaeq	r0, {r0, r1, r3, r7, r8, fp, sp}
 80020e0:	0800298f 	stmdaeq	r0, {r0, r1, r2, r3, r7, r8, fp, sp}
 80020e4:	00000000 	andeq	r0, r0, r0
 80020e8:	08001e3d 	stmdaeq	r0, {r0, r2, r3, r4, r5, r9, sl, fp, ip}

080020ec <_printf_common>:
 80020ec:	e92d 47f0 	stmdb	sp!, {r4, r5, r6, r7, r8, r9, sl, lr}
 80020f0:	4616      	mov	r6, r2
 80020f2:	4698      	mov	r8, r3
 80020f4:	688a      	ldr	r2, [r1, #8]
 80020f6:	690b      	ldr	r3, [r1, #16]
 80020f8:	f8dd 9020 	ldr.w	r9, [sp, #32]
 80020fc:	4293      	cmp	r3, r2
 80020fe:	bfb8      	it	lt
 8002100:	4613      	movlt	r3, r2
 8002102:	6033      	str	r3, [r6, #0]
 8002104:	f891 2043 	ldrb.w	r2, [r1, #67]	; 0x43
 8002108:	4607      	mov	r7, r0
 800210a:	460c      	mov	r4, r1
 800210c:	b10a      	cbz	r2, 8002112 <_printf_common+0x26>
 800210e:	3301      	adds	r3, #1
 8002110:	6033      	str	r3, [r6, #0]
 8002112:	6823      	ldr	r3, [r4, #0]
 8002114:	0699      	lsls	r1, r3, #26
 8002116:	bf42      	ittt	mi
 8002118:	6833      	ldrmi	r3, [r6, #0]
 800211a:	3302      	addmi	r3, #2
 800211c:	6033      	strmi	r3, [r6, #0]
 800211e:	6825      	ldr	r5, [r4, #0]
 8002120:	f015 0506 	ands.w	r5, r5, #6
 8002124:	d106      	bne.n	8002134 <_printf_common+0x48>
 8002126:	f104 0a19 	add.w	sl, r4, #25
 800212a:	68e3      	ldr	r3, [r4, #12]
 800212c:	6832      	ldr	r2, [r6, #0]
 800212e:	1a9b      	subs	r3, r3, r2
 8002130:	42ab      	cmp	r3, r5
 8002132:	dc26      	bgt.n	8002182 <_printf_common+0x96>
 8002134:	f894 3043 	ldrb.w	r3, [r4, #67]	; 0x43
 8002138:	6822      	ldr	r2, [r4, #0]
 800213a:	3b00      	subs	r3, #0
 800213c:	bf18      	it	ne
 800213e:	2301      	movne	r3, #1
 8002140:	0692      	lsls	r2, r2, #26
 8002142:	d42b      	bmi.n	800219c <_printf_common+0xb0>
 8002144:	f104 0243 	add.w	r2, r4, #67	; 0x43
 8002148:	4641      	mov	r1, r8
 800214a:	4638      	mov	r0, r7
 800214c:	47c8      	blx	r9
 800214e:	3001      	adds	r0, #1
 8002150:	d01e      	beq.n	8002190 <_printf_common+0xa4>
 8002152:	6823      	ldr	r3, [r4, #0]
 8002154:	6922      	ldr	r2, [r4, #16]
 8002156:	f003 0306 	and.w	r3, r3, #6
 800215a:	2b04      	cmp	r3, #4
 800215c:	bf02      	ittt	eq
 800215e:	68e5      	ldreq	r5, [r4, #12]
 8002160:	6833      	ldreq	r3, [r6, #0]
 8002162:	1aed      	subeq	r5, r5, r3
 8002164:	68a3      	ldr	r3, [r4, #8]
 8002166:	bf0c      	ite	eq
 8002168:	ea25 75e5 	biceq.w	r5, r5, r5, asr #31
 800216c:	2500      	movne	r5, #0
 800216e:	4293      	cmp	r3, r2
 8002170:	bfc4      	itt	gt
 8002172:	1a9b      	subgt	r3, r3, r2
 8002174:	18ed      	addgt	r5, r5, r3
 8002176:	2600      	movs	r6, #0
 8002178:	341a      	adds	r4, #26
 800217a:	42b5      	cmp	r5, r6
 800217c:	d11a      	bne.n	80021b4 <_printf_common+0xc8>
 800217e:	2000      	movs	r0, #0
 8002180:	e008      	b.n	8002194 <_printf_common+0xa8>
 8002182:	2301      	movs	r3, #1
 8002184:	4652      	mov	r2, sl
 8002186:	4641      	mov	r1, r8
 8002188:	4638      	mov	r0, r7
 800218a:	47c8      	blx	r9
 800218c:	3001      	adds	r0, #1
 800218e:	d103      	bne.n	8002198 <_printf_common+0xac>
 8002190:	f04f 30ff 	mov.w	r0, #4294967295
 8002194:	e8bd 87f0 	ldmia.w	sp!, {r4, r5, r6, r7, r8, r9, sl, pc}
 8002198:	3501      	adds	r5, #1
 800219a:	e7c6      	b.n	800212a <_printf_common+0x3e>
 800219c:	18e1      	adds	r1, r4, r3
 800219e:	1c5a      	adds	r2, r3, #1
 80021a0:	2030      	movs	r0, #48	; 0x30
 80021a2:	f881 0043 	strb.w	r0, [r1, #67]	; 0x43
 80021a6:	4422      	add	r2, r4
 80021a8:	f894 1045 	ldrb.w	r1, [r4, #69]	; 0x45
 80021ac:	f882 1043 	strb.w	r1, [r2, #67]	; 0x43
 80021b0:	3302      	adds	r3, #2
 80021b2:	e7c7      	b.n	8002144 <_printf_common+0x58>
 80021b4:	2301      	movs	r3, #1
 80021b6:	4622      	mov	r2, r4
 80021b8:	4641      	mov	r1, r8
 80021ba:	4638      	mov	r0, r7
 80021bc:	47c8      	blx	r9
 80021be:	3001      	adds	r0, #1
 80021c0:	d0e6      	beq.n	8002190 <_printf_common+0xa4>
 80021c2:	3601      	adds	r6, #1
 80021c4:	e7d9      	b.n	800217a <_printf_common+0x8e>
	...

080021c8 <_printf_i>:
 80021c8:	e92d 47ff 	stmdb	sp!, {r0, r1, r2, r3, r4, r5, r6, r7, r8, r9, sl, lr}
 80021cc:	7e0f      	ldrb	r7, [r1, #24]
 80021ce:	9e0c      	ldr	r6, [sp, #48]	; 0x30
 80021d0:	2f78      	cmp	r7, #120	; 0x78
 80021d2:	4691      	mov	r9, r2
 80021d4:	4680      	mov	r8, r0
 80021d6:	460c      	mov	r4, r1
 80021d8:	469a      	mov	sl, r3
 80021da:	f101 0243 	add.w	r2, r1, #67	; 0x43
 80021de:	d807      	bhi.n	80021f0 <_printf_i+0x28>
 80021e0:	2f62      	cmp	r7, #98	; 0x62
 80021e2:	d80a      	bhi.n	80021fa <_printf_i+0x32>
 80021e4:	2f00      	cmp	r7, #0
 80021e6:	f000 80dd 	beq.w	80023a4 <_printf_i+0x1dc>
 80021ea:	2f58      	cmp	r7, #88	; 0x58
 80021ec:	f000 80c3 	beq.w	8002376 <_printf_i+0x1ae>
 80021f0:	f104 0642 	add.w	r6, r4, #66	; 0x42
 80021f4:	f884 7042 	strb.w	r7, [r4, #66]	; 0x42
 80021f8:	e03a      	b.n	8002270 <_printf_i+0xa8>
 80021fa:	f1a7 0363 	sub.w	r3, r7, #99	; 0x63
 80021fe:	2b15      	cmp	r3, #21
 8002200:	d8f6      	bhi.n	80021f0 <_printf_i+0x28>
 8002202:	a101      	add	r1, pc, #4	; (adr r1, 8002208 <_printf_i+0x40>)
 8002204:	f851 f023 	ldr.w	pc, [r1, r3, lsl #2]
 8002208:	08002261 	stmdaeq	r0, {r0, r5, r6, r9, sp}
 800220c:	08002275 	stmdaeq	r0, {r0, r2, r4, r5, r6, r9, sp}
 8002210:	080021f1 	stmdaeq	r0, {r0, r4, r5, r6, r7, r8, sp}
 8002214:	080021f1 	stmdaeq	r0, {r0, r4, r5, r6, r7, r8, sp}
 8002218:	080021f1 	stmdaeq	r0, {r0, r4, r5, r6, r7, r8, sp}
 800221c:	080021f1 	stmdaeq	r0, {r0, r4, r5, r6, r7, r8, sp}
 8002220:	08002275 	stmdaeq	r0, {r0, r2, r4, r5, r6, r9, sp}
 8002224:	080021f1 	stmdaeq	r0, {r0, r4, r5, r6, r7, r8, sp}
 8002228:	080021f1 	stmdaeq	r0, {r0, r4, r5, r6, r7, r8, sp}
 800222c:	080021f1 	stmdaeq	r0, {r0, r4, r5, r6, r7, r8, sp}
 8002230:	080021f1 	stmdaeq	r0, {r0, r4, r5, r6, r7, r8, sp}
 8002234:	0800238b 	stmdaeq	r0, {r0, r1, r3, r7, r8, r9, sp}
 8002238:	08002303 	stmdaeq	r0, {r0, r1, r8, r9, sp}
 800223c:	08002343 	stmdaeq	r0, {r0, r1, r6, r8, r9, sp}
 8002240:	080021f1 	stmdaeq	r0, {r0, r4, r5, r6, r7, r8, sp}
 8002244:	080021f1 	stmdaeq	r0, {r0, r4, r5, r6, r7, r8, sp}
 8002248:	080023ad 	stmdaeq	r0, {r0, r2, r3, r5, r7, r8, r9, sp}
 800224c:	080021f1 	stmdaeq	r0, {r0, r4, r5, r6, r7, r8, sp}
 8002250:	08002303 	stmdaeq	r0, {r0, r1, r8, r9, sp}
 8002254:	080021f1 	stmdaeq	r0, {r0, r4, r5, r6, r7, r8, sp}
 8002258:	080021f1 	stmdaeq	r0, {r0, r4, r5, r6, r7, r8, sp}
 800225c:	0800234b 	stmdaeq	r0, {r0, r1, r3, r6, r8, r9, sp}
 8002260:	6833      	ldr	r3, [r6, #0]
 8002262:	1d1a      	adds	r2, r3, #4
 8002264:	681b      	ldr	r3, [r3, #0]
 8002266:	6032      	str	r2, [r6, #0]
 8002268:	f104 0642 	add.w	r6, r4, #66	; 0x42
 800226c:	f884 3042 	strb.w	r3, [r4, #66]	; 0x42
 8002270:	2301      	movs	r3, #1
 8002272:	e0a8      	b.n	80023c6 <_printf_i+0x1fe>
 8002274:	6831      	ldr	r1, [r6, #0]
 8002276:	6823      	ldr	r3, [r4, #0]
 8002278:	1d08      	adds	r0, r1, #4
 800227a:	6030      	str	r0, [r6, #0]
 800227c:	061e      	lsls	r6, r3, #24
 800227e:	d501      	bpl.n	8002284 <_printf_i+0xbc>
 8002280:	680d      	ldr	r5, [r1, #0]
 8002282:	e003      	b.n	800228c <_printf_i+0xc4>
 8002284:	065d      	lsls	r5, r3, #25
 8002286:	d5fb      	bpl.n	8002280 <_printf_i+0xb8>
 8002288:	f9b1 5000 	ldrsh.w	r5, [r1]
 800228c:	6861      	ldr	r1, [r4, #4]
 800228e:	2d00      	cmp	r5, #0
 8002290:	da78      	bge.n	8002384 <_printf_i+0x1bc>
 8002292:	202d      	movs	r0, #45	; 0x2d
 8002294:	2900      	cmp	r1, #0
 8002296:	f884 0043 	strb.w	r0, [r4, #67]	; 0x43
 800229a:	60a1      	str	r1, [r4, #8]
 800229c:	da2d      	bge.n	80022fa <_printf_i+0x132>
 800229e:	485e      	ldr	r0, [pc, #376]	; (8002418 <_printf_i+0x250>)
 80022a0:	426d      	negs	r5, r5
 80022a2:	230a      	movs	r3, #10
 80022a4:	4616      	mov	r6, r2
 80022a6:	fbb5 f1f3 	udiv	r1, r5, r3
 80022aa:	fb03 5711 	mls	r7, r3, r1, r5
 80022ae:	5dc7      	ldrb	r7, [r0, r7]
 80022b0:	f806 7d01 	strb.w	r7, [r6, #-1]!
 80022b4:	462f      	mov	r7, r5
 80022b6:	42bb      	cmp	r3, r7
 80022b8:	460d      	mov	r5, r1
 80022ba:	d9f4      	bls.n	80022a6 <_printf_i+0xde>
 80022bc:	2b08      	cmp	r3, #8
 80022be:	d10b      	bne.n	80022d8 <_printf_i+0x110>
 80022c0:	6823      	ldr	r3, [r4, #0]
 80022c2:	07df      	lsls	r7, r3, #31
 80022c4:	d508      	bpl.n	80022d8 <_printf_i+0x110>
 80022c6:	6923      	ldr	r3, [r4, #16]
 80022c8:	6861      	ldr	r1, [r4, #4]
 80022ca:	4299      	cmp	r1, r3
 80022cc:	bfde      	ittt	le
 80022ce:	2330      	movle	r3, #48	; 0x30
 80022d0:	f806 3c01 	strble.w	r3, [r6, #-1]
 80022d4:	f106 36ff 	addle.w	r6, r6, #4294967295
 80022d8:	1b92      	subs	r2, r2, r6
 80022da:	6122      	str	r2, [r4, #16]
 80022dc:	f8cd a000 	str.w	sl, [sp]
 80022e0:	464b      	mov	r3, r9
 80022e2:	aa03      	add	r2, sp, #12
 80022e4:	4621      	mov	r1, r4
 80022e6:	4640      	mov	r0, r8
 80022e8:	f7ff ff00 	bl	80020ec <_printf_common>
 80022ec:	3001      	adds	r0, #1
 80022ee:	d16f      	bne.n	80023d0 <_printf_i+0x208>
 80022f0:	f04f 30ff 	mov.w	r0, #4294967295
 80022f4:	b004      	add	sp, #16
 80022f6:	e8bd 87f0 	ldmia.w	sp!, {r4, r5, r6, r7, r8, r9, sl, pc}
 80022fa:	f023 0304 	bic.w	r3, r3, #4
 80022fe:	6023      	str	r3, [r4, #0]
 8002300:	e7cd      	b.n	800229e <_printf_i+0xd6>
 8002302:	6821      	ldr	r1, [r4, #0]
 8002304:	6833      	ldr	r3, [r6, #0]
 8002306:	0608      	lsls	r0, r1, #24
 8002308:	f853 5b04 	ldr.w	r5, [r3], #4
 800230c:	d402      	bmi.n	8002314 <_printf_i+0x14c>
 800230e:	0649      	lsls	r1, r1, #25
 8002310:	bf48      	it	mi
 8002312:	b2ad      	uxthmi	r5, r5
 8002314:	2f6f      	cmp	r7, #111	; 0x6f
 8002316:	4840      	ldr	r0, [pc, #256]	; (8002418 <_printf_i+0x250>)
 8002318:	6033      	str	r3, [r6, #0]
 800231a:	bf14      	ite	ne
 800231c:	230a      	movne	r3, #10
 800231e:	2308      	moveq	r3, #8
 8002320:	2100      	movs	r1, #0
 8002322:	f884 1043 	strb.w	r1, [r4, #67]	; 0x43
 8002326:	6866      	ldr	r6, [r4, #4]
 8002328:	60a6      	str	r6, [r4, #8]
 800232a:	2e00      	cmp	r6, #0
 800232c:	dbba      	blt.n	80022a4 <_printf_i+0xdc>
 800232e:	6821      	ldr	r1, [r4, #0]
 8002330:	f021 0104 	bic.w	r1, r1, #4
 8002334:	6021      	str	r1, [r4, #0]
 8002336:	2d00      	cmp	r5, #0
 8002338:	d1b4      	bne.n	80022a4 <_printf_i+0xdc>
 800233a:	2e00      	cmp	r6, #0
 800233c:	d1b2      	bne.n	80022a4 <_printf_i+0xdc>
 800233e:	4616      	mov	r6, r2
 8002340:	e7bc      	b.n	80022bc <_printf_i+0xf4>
 8002342:	6823      	ldr	r3, [r4, #0]
 8002344:	f043 0320 	orr.w	r3, r3, #32
 8002348:	6023      	str	r3, [r4, #0]
 800234a:	4834      	ldr	r0, [pc, #208]	; (800241c <_printf_i+0x254>)
 800234c:	2778      	movs	r7, #120	; 0x78
 800234e:	f884 7045 	strb.w	r7, [r4, #69]	; 0x45
 8002352:	6823      	ldr	r3, [r4, #0]
 8002354:	6831      	ldr	r1, [r6, #0]
 8002356:	061f      	lsls	r7, r3, #24
 8002358:	f851 5b04 	ldr.w	r5, [r1], #4
 800235c:	d402      	bmi.n	8002364 <_printf_i+0x19c>
 800235e:	065f      	lsls	r7, r3, #25
 8002360:	bf48      	it	mi
 8002362:	b2ad      	uxthmi	r5, r5
 8002364:	6031      	str	r1, [r6, #0]
 8002366:	07d9      	lsls	r1, r3, #31
 8002368:	bf44      	itt	mi
 800236a:	f043 0320 	orrmi.w	r3, r3, #32
 800236e:	6023      	strmi	r3, [r4, #0]
 8002370:	b11d      	cbz	r5, 800237a <_printf_i+0x1b2>
 8002372:	2310      	movs	r3, #16
 8002374:	e7d4      	b.n	8002320 <_printf_i+0x158>
 8002376:	4828      	ldr	r0, [pc, #160]	; (8002418 <_printf_i+0x250>)
 8002378:	e7e9      	b.n	800234e <_printf_i+0x186>
 800237a:	6823      	ldr	r3, [r4, #0]
 800237c:	f023 0320 	bic.w	r3, r3, #32
 8002380:	6023      	str	r3, [r4, #0]
 8002382:	e7f6      	b.n	8002372 <_printf_i+0x1aa>
 8002384:	4824      	ldr	r0, [pc, #144]	; (8002418 <_printf_i+0x250>)
 8002386:	230a      	movs	r3, #10
 8002388:	e7cd      	b.n	8002326 <_printf_i+0x15e>
 800238a:	6833      	ldr	r3, [r6, #0]
 800238c:	6825      	ldr	r5, [r4, #0]
 800238e:	6961      	ldr	r1, [r4, #20]
 8002390:	1d18      	adds	r0, r3, #4
 8002392:	6030      	str	r0, [r6, #0]
 8002394:	062e      	lsls	r6, r5, #24
 8002396:	681b      	ldr	r3, [r3, #0]
 8002398:	d501      	bpl.n	800239e <_printf_i+0x1d6>
 800239a:	6019      	str	r1, [r3, #0]
 800239c:	e002      	b.n	80023a4 <_printf_i+0x1dc>
 800239e:	0668      	lsls	r0, r5, #25
 80023a0:	d5fb      	bpl.n	800239a <_printf_i+0x1d2>
 80023a2:	8019      	strh	r1, [r3, #0]
 80023a4:	2300      	movs	r3, #0
 80023a6:	6123      	str	r3, [r4, #16]
 80023a8:	4616      	mov	r6, r2
 80023aa:	e797      	b.n	80022dc <_printf_i+0x114>
 80023ac:	6833      	ldr	r3, [r6, #0]
 80023ae:	1d1a      	adds	r2, r3, #4
 80023b0:	6032      	str	r2, [r6, #0]
 80023b2:	681e      	ldr	r6, [r3, #0]
 80023b4:	6862      	ldr	r2, [r4, #4]
 80023b6:	2100      	movs	r1, #0
 80023b8:	4630      	mov	r0, r6
 80023ba:	f000 f851 	bl	8002460 <memchr>
 80023be:	b108      	cbz	r0, 80023c4 <_printf_i+0x1fc>
 80023c0:	1b80      	subs	r0, r0, r6
 80023c2:	6060      	str	r0, [r4, #4]
 80023c4:	6863      	ldr	r3, [r4, #4]
 80023c6:	6123      	str	r3, [r4, #16]
 80023c8:	2300      	movs	r3, #0
 80023ca:	f884 3043 	strb.w	r3, [r4, #67]	; 0x43
 80023ce:	e785      	b.n	80022dc <_printf_i+0x114>
 80023d0:	6923      	ldr	r3, [r4, #16]
 80023d2:	4632      	mov	r2, r6
 80023d4:	4649      	mov	r1, r9
 80023d6:	4640      	mov	r0, r8
 80023d8:	47d0      	blx	sl
 80023da:	3001      	adds	r0, #1
 80023dc:	d088      	beq.n	80022f0 <_printf_i+0x128>
 80023de:	6823      	ldr	r3, [r4, #0]
 80023e0:	079b      	lsls	r3, r3, #30
 80023e2:	d414      	bmi.n	800240e <_printf_i+0x246>
 80023e4:	68e0      	ldr	r0, [r4, #12]
 80023e6:	9b03      	ldr	r3, [sp, #12]
 80023e8:	4298      	cmp	r0, r3
 80023ea:	bfb8      	it	lt
 80023ec:	4618      	movlt	r0, r3
 80023ee:	e781      	b.n	80022f4 <_printf_i+0x12c>
 80023f0:	2301      	movs	r3, #1
 80023f2:	4632      	mov	r2, r6
 80023f4:	4649      	mov	r1, r9
 80023f6:	4640      	mov	r0, r8
 80023f8:	47d0      	blx	sl
 80023fa:	3001      	adds	r0, #1
 80023fc:	f43f af78 	beq.w	80022f0 <_printf_i+0x128>
 8002400:	3501      	adds	r5, #1
 8002402:	68e3      	ldr	r3, [r4, #12]
 8002404:	9903      	ldr	r1, [sp, #12]
 8002406:	1a5b      	subs	r3, r3, r1
 8002408:	42ab      	cmp	r3, r5
 800240a:	dcf1      	bgt.n	80023f0 <_printf_i+0x228>
 800240c:	e7ea      	b.n	80023e4 <_printf_i+0x21c>
 800240e:	2500      	movs	r5, #0
 8002410:	f104 0619 	add.w	r6, r4, #25
 8002414:	e7f5      	b.n	8002402 <_printf_i+0x23a>
 8002416:	bf00      	nop
 8002418:	08002996 	stmdaeq	r0, {r1, r2, r4, r7, r8, fp, sp}
 800241c:	080029a7 	stmdaeq	r0, {r0, r1, r2, r5, r7, r8, fp, sp}

08002420 <memmove>:
 8002420:	4288      	cmp	r0, r1
 8002422:	b510      	push	{r4, lr}
 8002424:	eb01 0402 	add.w	r4, r1, r2
 8002428:	d902      	bls.n	8002430 <memmove+0x10>
 800242a:	4284      	cmp	r4, r0
 800242c:	4623      	mov	r3, r4
 800242e:	d807      	bhi.n	8002440 <memmove+0x20>
 8002430:	1e43      	subs	r3, r0, #1
 8002432:	42a1      	cmp	r1, r4
 8002434:	d008      	beq.n	8002448 <memmove+0x28>
 8002436:	f811 2b01 	ldrb.w	r2, [r1], #1
 800243a:	f803 2f01 	strb.w	r2, [r3, #1]!
 800243e:	e7f8      	b.n	8002432 <memmove+0x12>
 8002440:	4402      	add	r2, r0
 8002442:	4601      	mov	r1, r0
 8002444:	428a      	cmp	r2, r1
 8002446:	d100      	bne.n	800244a <memmove+0x2a>
 8002448:	bd10      	pop	{r4, pc}
 800244a:	f813 4d01 	ldrb.w	r4, [r3, #-1]!
 800244e:	f802 4d01 	strb.w	r4, [r2, #-1]!
 8002452:	e7f7      	b.n	8002444 <memmove+0x24>
	...

08002460 <memchr>:
 8002460:	f001 01ff 	and.w	r1, r1, #255	; 0xff
 8002464:	2a10      	cmp	r2, #16
 8002466:	db2b      	blt.n	80024c0 <memchr+0x60>
 8002468:	f010 0f07 	tst.w	r0, #7
 800246c:	d008      	beq.n	8002480 <memchr+0x20>
 800246e:	f810 3b01 	ldrb.w	r3, [r0], #1
 8002472:	3a01      	subs	r2, #1
 8002474:	428b      	cmp	r3, r1
 8002476:	d02d      	beq.n	80024d4 <memchr+0x74>
 8002478:	f010 0f07 	tst.w	r0, #7
 800247c:	b342      	cbz	r2, 80024d0 <memchr+0x70>
 800247e:	d1f6      	bne.n	800246e <memchr+0xe>
 8002480:	b4f0      	push	{r4, r5, r6, r7}
 8002482:	ea41 2101 	orr.w	r1, r1, r1, lsl #8
 8002486:	ea41 4101 	orr.w	r1, r1, r1, lsl #16
 800248a:	f022 0407 	bic.w	r4, r2, #7
 800248e:	f07f 0700 	mvns.w	r7, #0
 8002492:	2300      	movs	r3, #0
 8002494:	e8f0 5602 	ldrd	r5, r6, [r0], #8
 8002498:	3c08      	subs	r4, #8
 800249a:	ea85 0501 	eor.w	r5, r5, r1
 800249e:	ea86 0601 	eor.w	r6, r6, r1
 80024a2:	fa85 f547 	uadd8	r5, r5, r7
 80024a6:	faa3 f587 	sel	r5, r3, r7
 80024aa:	fa86 f647 	uadd8	r6, r6, r7
 80024ae:	faa5 f687 	sel	r6, r5, r7
 80024b2:	b98e      	cbnz	r6, 80024d8 <memchr+0x78>
 80024b4:	d1ee      	bne.n	8002494 <memchr+0x34>
 80024b6:	bcf0      	pop	{r4, r5, r6, r7}
 80024b8:	f001 01ff 	and.w	r1, r1, #255	; 0xff
 80024bc:	f002 0207 	and.w	r2, r2, #7
 80024c0:	b132      	cbz	r2, 80024d0 <memchr+0x70>
 80024c2:	f810 3b01 	ldrb.w	r3, [r0], #1
 80024c6:	3a01      	subs	r2, #1
 80024c8:	ea83 0301 	eor.w	r3, r3, r1
 80024cc:	b113      	cbz	r3, 80024d4 <memchr+0x74>
 80024ce:	d1f8      	bne.n	80024c2 <memchr+0x62>
 80024d0:	2000      	movs	r0, #0
 80024d2:	4770      	bx	lr
 80024d4:	3801      	subs	r0, #1
 80024d6:	4770      	bx	lr
 80024d8:	2d00      	cmp	r5, #0
 80024da:	bf06      	itte	eq
 80024dc:	4635      	moveq	r5, r6
 80024de:	3803      	subeq	r0, #3
 80024e0:	3807      	subne	r0, #7
 80024e2:	f015 0f01 	tst.w	r5, #1
 80024e6:	d107      	bne.n	80024f8 <memchr+0x98>
 80024e8:	3001      	adds	r0, #1
 80024ea:	f415 7f80 	tst.w	r5, #256	; 0x100
 80024ee:	bf02      	ittt	eq
 80024f0:	3001      	addeq	r0, #1
 80024f2:	f415 3fc0 	tsteq.w	r5, #98304	; 0x18000
 80024f6:	3001      	addeq	r0, #1
 80024f8:	bcf0      	pop	{r4, r5, r6, r7}
 80024fa:	3801      	subs	r0, #1
 80024fc:	4770      	bx	lr
 80024fe:	bf00      	nop

08002500 <memcpy>:
 8002500:	440a      	add	r2, r1
 8002502:	4291      	cmp	r1, r2
 8002504:	f100 33ff 	add.w	r3, r0, #4294967295
 8002508:	d100      	bne.n	800250c <memcpy+0xc>
 800250a:	4770      	bx	lr
 800250c:	b510      	push	{r4, lr}
 800250e:	f811 4b01 	ldrb.w	r4, [r1], #1
 8002512:	f803 4f01 	strb.w	r4, [r3, #1]!
 8002516:	4291      	cmp	r1, r2
 8002518:	d1f9      	bne.n	800250e <memcpy+0xe>
 800251a:	bd10      	pop	{r4, pc}

0800251c <_free_r>:
 800251c:	b538      	push	{r3, r4, r5, lr}
 800251e:	4605      	mov	r5, r0
 8002520:	2900      	cmp	r1, #0
 8002522:	d041      	beq.n	80025a8 <_free_r+0x8c>
 8002524:	f851 3c04 	ldr.w	r3, [r1, #-4]
 8002528:	1f0c      	subs	r4, r1, #4
 800252a:	2b00      	cmp	r3, #0
 800252c:	bfb8      	it	lt
 800252e:	18e4      	addlt	r4, r4, r3
 8002530:	f000 f8e0 	bl	80026f4 <__malloc_lock>
 8002534:	4a1d      	ldr	r2, [pc, #116]	; (80025ac <_free_r+0x90>)
 8002536:	6813      	ldr	r3, [r2, #0]
 8002538:	b933      	cbnz	r3, 8002548 <_free_r+0x2c>
 800253a:	6063      	str	r3, [r4, #4]
 800253c:	6014      	str	r4, [r2, #0]
 800253e:	4628      	mov	r0, r5
 8002540:	e8bd 4038 	ldmia.w	sp!, {r3, r4, r5, lr}
 8002544:	f000 b8dc 	b.w	8002700 <__malloc_unlock>
 8002548:	42a3      	cmp	r3, r4
 800254a:	d908      	bls.n	800255e <_free_r+0x42>
 800254c:	6820      	ldr	r0, [r4, #0]
 800254e:	1821      	adds	r1, r4, r0
 8002550:	428b      	cmp	r3, r1
 8002552:	bf01      	itttt	eq
 8002554:	6819      	ldreq	r1, [r3, #0]
 8002556:	685b      	ldreq	r3, [r3, #4]
 8002558:	1809      	addeq	r1, r1, r0
 800255a:	6021      	streq	r1, [r4, #0]
 800255c:	e7ed      	b.n	800253a <_free_r+0x1e>
 800255e:	461a      	mov	r2, r3
 8002560:	685b      	ldr	r3, [r3, #4]
 8002562:	b10b      	cbz	r3, 8002568 <_free_r+0x4c>
 8002564:	42a3      	cmp	r3, r4
 8002566:	d9fa      	bls.n	800255e <_free_r+0x42>
 8002568:	6811      	ldr	r1, [r2, #0]
 800256a:	1850      	adds	r0, r2, r1
 800256c:	42a0      	cmp	r0, r4
 800256e:	d10b      	bne.n	8002588 <_free_r+0x6c>
 8002570:	6820      	ldr	r0, [r4, #0]
 8002572:	4401      	add	r1, r0
 8002574:	1850      	adds	r0, r2, r1
 8002576:	4283      	cmp	r3, r0
 8002578:	6011      	str	r1, [r2, #0]
 800257a:	d1e0      	bne.n	800253e <_free_r+0x22>
 800257c:	6818      	ldr	r0, [r3, #0]
 800257e:	685b      	ldr	r3, [r3, #4]
 8002580:	6053      	str	r3, [r2, #4]
 8002582:	4408      	add	r0, r1
 8002584:	6010      	str	r0, [r2, #0]
 8002586:	e7da      	b.n	800253e <_free_r+0x22>
 8002588:	d902      	bls.n	8002590 <_free_r+0x74>
 800258a:	230c      	movs	r3, #12
 800258c:	602b      	str	r3, [r5, #0]
 800258e:	e7d6      	b.n	800253e <_free_r+0x22>
 8002590:	6820      	ldr	r0, [r4, #0]
 8002592:	1821      	adds	r1, r4, r0
 8002594:	428b      	cmp	r3, r1
 8002596:	bf04      	itt	eq
 8002598:	6819      	ldreq	r1, [r3, #0]
 800259a:	685b      	ldreq	r3, [r3, #4]
 800259c:	6063      	str	r3, [r4, #4]
 800259e:	bf04      	itt	eq
 80025a0:	1809      	addeq	r1, r1, r0
 80025a2:	6021      	streq	r1, [r4, #0]
 80025a4:	6054      	str	r4, [r2, #4]
 80025a6:	e7ca      	b.n	800253e <_free_r+0x22>
 80025a8:	bd38      	pop	{r3, r4, r5, pc}
 80025aa:	bf00      	nop
 80025ac:	20000148 	andcs	r0, r0, r8, asr #2

080025b0 <sbrk_aligned>:
 80025b0:	b570      	push	{r4, r5, r6, lr}
 80025b2:	4e0f      	ldr	r6, [pc, #60]	; (80025f0 <sbrk_aligned+0x40>)
 80025b4:	460c      	mov	r4, r1
 80025b6:	6831      	ldr	r1, [r6, #0]
 80025b8:	4605      	mov	r5, r0
 80025ba:	b911      	cbnz	r1, 80025c2 <sbrk_aligned+0x12>
 80025bc:	f000 f8d4 	bl	8002768 <_sbrk_r>
 80025c0:	6030      	str	r0, [r6, #0]
 80025c2:	4621      	mov	r1, r4
 80025c4:	4628      	mov	r0, r5
 80025c6:	f000 f8cf 	bl	8002768 <_sbrk_r>
 80025ca:	1c43      	adds	r3, r0, #1
 80025cc:	d103      	bne.n	80025d6 <sbrk_aligned+0x26>
 80025ce:	f04f 34ff 	mov.w	r4, #4294967295
 80025d2:	4620      	mov	r0, r4
 80025d4:	bd70      	pop	{r4, r5, r6, pc}
 80025d6:	1cc4      	adds	r4, r0, #3
 80025d8:	f024 0403 	bic.w	r4, r4, #3
 80025dc:	42a0      	cmp	r0, r4
 80025de:	d0f8      	beq.n	80025d2 <sbrk_aligned+0x22>
 80025e0:	1a21      	subs	r1, r4, r0
 80025e2:	4628      	mov	r0, r5
 80025e4:	f000 f8c0 	bl	8002768 <_sbrk_r>
 80025e8:	3001      	adds	r0, #1
 80025ea:	d1f2      	bne.n	80025d2 <sbrk_aligned+0x22>
 80025ec:	e7ef      	b.n	80025ce <sbrk_aligned+0x1e>
 80025ee:	bf00      	nop
 80025f0:	20000144 	andcs	r0, r0, r4, asr #2

080025f4 <_malloc_r>:
 80025f4:	e92d 43f8 	stmdb	sp!, {r3, r4, r5, r6, r7, r8, r9, lr}
 80025f8:	1ccd      	adds	r5, r1, #3
 80025fa:	f025 0503 	bic.w	r5, r5, #3
 80025fe:	3508      	adds	r5, #8
 8002600:	2d0c      	cmp	r5, #12
 8002602:	bf38      	it	cc
 8002604:	250c      	movcc	r5, #12
 8002606:	2d00      	cmp	r5, #0
 8002608:	4606      	mov	r6, r0
 800260a:	db01      	blt.n	8002610 <_malloc_r+0x1c>
 800260c:	42a9      	cmp	r1, r5
 800260e:	d904      	bls.n	800261a <_malloc_r+0x26>
 8002610:	230c      	movs	r3, #12
 8002612:	6033      	str	r3, [r6, #0]
 8002614:	2000      	movs	r0, #0
 8002616:	e8bd 83f8 	ldmia.w	sp!, {r3, r4, r5, r6, r7, r8, r9, pc}
 800261a:	f8df 80d4 	ldr.w	r8, [pc, #212]	; 80026f0 <_malloc_r+0xfc>
 800261e:	f000 f869 	bl	80026f4 <__malloc_lock>
 8002622:	f8d8 3000 	ldr.w	r3, [r8]
 8002626:	461c      	mov	r4, r3
 8002628:	bb44      	cbnz	r4, 800267c <_malloc_r+0x88>
 800262a:	4629      	mov	r1, r5
 800262c:	4630      	mov	r0, r6
 800262e:	f7ff ffbf 	bl	80025b0 <sbrk_aligned>
 8002632:	1c43      	adds	r3, r0, #1
 8002634:	4604      	mov	r4, r0
 8002636:	d158      	bne.n	80026ea <_malloc_r+0xf6>
 8002638:	f8d8 4000 	ldr.w	r4, [r8]
 800263c:	4627      	mov	r7, r4
 800263e:	2f00      	cmp	r7, #0
 8002640:	d143      	bne.n	80026ca <_malloc_r+0xd6>
 8002642:	2c00      	cmp	r4, #0
 8002644:	d04b      	beq.n	80026de <_malloc_r+0xea>
 8002646:	6823      	ldr	r3, [r4, #0]
 8002648:	4639      	mov	r1, r7
 800264a:	4630      	mov	r0, r6
 800264c:	eb04 0903 	add.w	r9, r4, r3
 8002650:	f000 f88a 	bl	8002768 <_sbrk_r>
 8002654:	4581      	cmp	r9, r0
 8002656:	d142      	bne.n	80026de <_malloc_r+0xea>
 8002658:	6821      	ldr	r1, [r4, #0]
 800265a:	1a6d      	subs	r5, r5, r1
 800265c:	4629      	mov	r1, r5
 800265e:	4630      	mov	r0, r6
 8002660:	f7ff ffa6 	bl	80025b0 <sbrk_aligned>
 8002664:	3001      	adds	r0, #1
 8002666:	d03a      	beq.n	80026de <_malloc_r+0xea>
 8002668:	6823      	ldr	r3, [r4, #0]
 800266a:	442b      	add	r3, r5
 800266c:	6023      	str	r3, [r4, #0]
 800266e:	f8d8 3000 	ldr.w	r3, [r8]
 8002672:	685a      	ldr	r2, [r3, #4]
 8002674:	bb62      	cbnz	r2, 80026d0 <_malloc_r+0xdc>
 8002676:	f8c8 7000 	str.w	r7, [r8]
 800267a:	e00f      	b.n	800269c <_malloc_r+0xa8>
 800267c:	6822      	ldr	r2, [r4, #0]
 800267e:	1b52      	subs	r2, r2, r5
 8002680:	d420      	bmi.n	80026c4 <_malloc_r+0xd0>
 8002682:	2a0b      	cmp	r2, #11
 8002684:	d917      	bls.n	80026b6 <_malloc_r+0xc2>
 8002686:	1961      	adds	r1, r4, r5
 8002688:	42a3      	cmp	r3, r4
 800268a:	6025      	str	r5, [r4, #0]
 800268c:	bf18      	it	ne
 800268e:	6059      	strne	r1, [r3, #4]
 8002690:	6863      	ldr	r3, [r4, #4]
 8002692:	bf08      	it	eq
 8002694:	f8c8 1000 	streq.w	r1, [r8]
 8002698:	5162      	str	r2, [r4, r5]
 800269a:	604b      	str	r3, [r1, #4]
 800269c:	4630      	mov	r0, r6
 800269e:	f000 f82f 	bl	8002700 <__malloc_unlock>
 80026a2:	f104 000b 	add.w	r0, r4, #11
 80026a6:	1d23      	adds	r3, r4, #4
 80026a8:	f020 0007 	bic.w	r0, r0, #7
 80026ac:	1ac2      	subs	r2, r0, r3
 80026ae:	bf1c      	itt	ne
 80026b0:	1a1b      	subne	r3, r3, r0
 80026b2:	50a3      	strne	r3, [r4, r2]
 80026b4:	e7af      	b.n	8002616 <_malloc_r+0x22>
 80026b6:	6862      	ldr	r2, [r4, #4]
 80026b8:	42a3      	cmp	r3, r4
 80026ba:	bf0c      	ite	eq
 80026bc:	f8c8 2000 	streq.w	r2, [r8]
 80026c0:	605a      	strne	r2, [r3, #4]
 80026c2:	e7eb      	b.n	800269c <_malloc_r+0xa8>
 80026c4:	4623      	mov	r3, r4
 80026c6:	6864      	ldr	r4, [r4, #4]
 80026c8:	e7ae      	b.n	8002628 <_malloc_r+0x34>
 80026ca:	463c      	mov	r4, r7
 80026cc:	687f      	ldr	r7, [r7, #4]
 80026ce:	e7b6      	b.n	800263e <_malloc_r+0x4a>
 80026d0:	461a      	mov	r2, r3
 80026d2:	685b      	ldr	r3, [r3, #4]
 80026d4:	42a3      	cmp	r3, r4
 80026d6:	d1fb      	bne.n	80026d0 <_malloc_r+0xdc>
 80026d8:	2300      	movs	r3, #0
 80026da:	6053      	str	r3, [r2, #4]
 80026dc:	e7de      	b.n	800269c <_malloc_r+0xa8>
 80026de:	230c      	movs	r3, #12
 80026e0:	6033      	str	r3, [r6, #0]
 80026e2:	4630      	mov	r0, r6
 80026e4:	f000 f80c 	bl	8002700 <__malloc_unlock>
 80026e8:	e794      	b.n	8002614 <_malloc_r+0x20>
 80026ea:	6005      	str	r5, [r0, #0]
 80026ec:	e7d6      	b.n	800269c <_malloc_r+0xa8>
 80026ee:	bf00      	nop
 80026f0:	20000148 	andcs	r0, r0, r8, asr #2

080026f4 <__malloc_lock>:
 80026f4:	4801      	ldr	r0, [pc, #4]	; (80026fc <__malloc_lock+0x8>)
 80026f6:	f000 b847 	b.w	8002788 <__retarget_lock_acquire_recursive>
 80026fa:	bf00      	nop
 80026fc:	2000014c 	andcs	r0, r0, ip, asr #2

08002700 <__malloc_unlock>:
 8002700:	4801      	ldr	r0, [pc, #4]	; (8002708 <__malloc_unlock+0x8>)
 8002702:	f000 b842 	b.w	800278a <__retarget_lock_release_recursive>
 8002706:	bf00      	nop
 8002708:	2000014c 	andcs	r0, r0, ip, asr #2

0800270c <_realloc_r>:
 800270c:	e92d 41f0 	stmdb	sp!, {r4, r5, r6, r7, r8, lr}
 8002710:	4680      	mov	r8, r0
 8002712:	4615      	mov	r5, r2
 8002714:	460c      	mov	r4, r1
 8002716:	b921      	cbnz	r1, 8002722 <_realloc_r+0x16>
 8002718:	e8bd 41f0 	ldmia.w	sp!, {r4, r5, r6, r7, r8, lr}
 800271c:	4611      	mov	r1, r2
 800271e:	f7ff bf69 	b.w	80025f4 <_malloc_r>
 8002722:	b92a      	cbnz	r2, 8002730 <_realloc_r+0x24>
 8002724:	f7ff fefa 	bl	800251c <_free_r>
 8002728:	2400      	movs	r4, #0
 800272a:	4620      	mov	r0, r4
 800272c:	e8bd 81f0 	ldmia.w	sp!, {r4, r5, r6, r7, r8, pc}
 8002730:	f000 f82c 	bl	800278c <_malloc_usable_size_r>
 8002734:	4285      	cmp	r5, r0
 8002736:	4606      	mov	r6, r0
 8002738:	d802      	bhi.n	8002740 <_realloc_r+0x34>
 800273a:	ebb5 0f50 	cmp.w	r5, r0, lsr #1
 800273e:	d8f4      	bhi.n	800272a <_realloc_r+0x1e>
 8002740:	4629      	mov	r1, r5
 8002742:	4640      	mov	r0, r8
 8002744:	f7ff ff56 	bl	80025f4 <_malloc_r>
 8002748:	4607      	mov	r7, r0
 800274a:	2800      	cmp	r0, #0
 800274c:	d0ec      	beq.n	8002728 <_realloc_r+0x1c>
 800274e:	42b5      	cmp	r5, r6
 8002750:	462a      	mov	r2, r5
 8002752:	4621      	mov	r1, r4
 8002754:	bf28      	it	cs
 8002756:	4632      	movcs	r2, r6
 8002758:	f7ff fed2 	bl	8002500 <memcpy>
 800275c:	4621      	mov	r1, r4
 800275e:	4640      	mov	r0, r8
 8002760:	f7ff fedc 	bl	800251c <_free_r>
 8002764:	463c      	mov	r4, r7
 8002766:	e7e0      	b.n	800272a <_realloc_r+0x1e>

08002768 <_sbrk_r>:
 8002768:	b538      	push	{r3, r4, r5, lr}
 800276a:	4d06      	ldr	r5, [pc, #24]	; (8002784 <_sbrk_r+0x1c>)
 800276c:	2300      	movs	r3, #0
 800276e:	4604      	mov	r4, r0
 8002770:	4608      	mov	r0, r1
 8002772:	602b      	str	r3, [r5, #0]
 8002774:	f7fe fb28 	bl	8000dc8 <_sbrk>
 8002778:	1c43      	adds	r3, r0, #1
 800277a:	d102      	bne.n	8002782 <_sbrk_r+0x1a>
 800277c:	682b      	ldr	r3, [r5, #0]
 800277e:	b103      	cbz	r3, 8002782 <_sbrk_r+0x1a>
 8002780:	6023      	str	r3, [r4, #0]
 8002782:	bd38      	pop	{r3, r4, r5, pc}
 8002784:	2000007c 	andcs	r0, r0, ip, ror r0

08002788 <__retarget_lock_acquire_recursive>:
 8002788:	4770      	bx	lr

0800278a <__retarget_lock_release_recursive>:
 800278a:	4770      	bx	lr

0800278c <_malloc_usable_size_r>:
 800278c:	f851 3c04 	ldr.w	r3, [r1, #-4]
 8002790:	1f18      	subs	r0, r3, #4
 8002792:	2b00      	cmp	r3, #0
 8002794:	bfbc      	itt	lt
 8002796:	580b      	ldrlt	r3, [r1, r0]
 8002798:	18c0      	addlt	r0, r0, r3
 800279a:	4770      	bx	lr
 800279c:	732f2e2e 	teqvc	pc, #736	; 0x2e0
 80027a0:	65747379 	ldrbvs	r7, [r4, #-889]!	; 0x379
 80027a4:	72732f6d 	rsbsvc	r2, r3, #436	; 0x1b4
 80027a8:	74732f63 	ldrbtvc	r2, [r3], #-3939	; 0xf63
 80027ac:	6632336d 	ldrtvs	r3, [r2], -sp, ror #6
 80027b0:	61682d34 	cmnvs	r8, r4, lsr sp
 80027b4:	74732f6c 	ldrbtvc	r2, [r3], #-3948	; 0xf6c
 80027b8:	6632336d 	ldrtvs	r3, [r2], -sp, ror #6
 80027bc:	5f787834 	svcpl	0x00787834
 80027c0:	5f6c6168 	svcpl	0x006c6168
 80027c4:	74726f63 	ldrbtvc	r6, [r2], #-3939	; 0xf63
 80027c8:	632e7865 	teqvs	lr, #6619136	; 0x650000
 80027cc:	00000000 	andeq	r0, r0, r0
 80027d0:	732f2e2e 	teqvc	pc, #736	; 0x2e0
 80027d4:	65747379 	ldrbvs	r7, [r4, #-889]!	; 0x379
 80027d8:	72732f6d 	rsbsvc	r2, r3, #436	; 0x1b4
 80027dc:	74732f63 	ldrbtvc	r2, [r3], #-3939	; 0xf63
 80027e0:	6632336d 	ldrtvs	r3, [r2], -sp, ror #6
 80027e4:	61682d34 	cmnvs	r8, r4, lsr sp
 80027e8:	74732f6c 	ldrbtvc	r2, [r3], #-3948	; 0xf6c
 80027ec:	6632336d 	ldrtvs	r3, [r2], -sp, ror #6
 80027f0:	5f787834 	svcpl	0x00787834
 80027f4:	5f6c6168 	svcpl	0x006c6168
 80027f8:	2e636372 	mcrcs	3, 3, r6, cr3, cr2, {3}
 80027fc:	00000063 	andeq	r0, r0, r3, rrx
 8002800:	63617453 	cmnvs	r1, #1392508928	; 0x53000000
 8002804:	7266206b 	rsbvc	r2, r6, #107	; 0x6b
 8002808:	3a656d61 	bcc	995dd94 <_sidata+0x195b35c>
 800280c:	0000000a 	andeq	r0, r0, sl
 8002810:	20305220 	eorscs	r5, r0, r0, lsr #4
 8002814:	2520203d 	strcs	r2, [r0, #-61]!	; 0x3d
 8002818:	0a583830 	beq	96108e0 <_sidata+0x160dea8>
 800281c:	00000000 	andeq	r0, r0, r0
 8002820:	20315220 	eorscs	r5, r1, r0, lsr #4
 8002824:	2520203d 	strcs	r2, [r0, #-61]!	; 0x3d
 8002828:	0a583830 	beq	96108f0 <_sidata+0x160deb8>
 800282c:	00000000 	andeq	r0, r0, r0
 8002830:	20325220 	eorscs	r5, r2, r0, lsr #4
 8002834:	2520203d 	strcs	r2, [r0, #-61]!	; 0x3d
 8002838:	0a583830 	beq	9610900 <_sidata+0x160dec8>
 800283c:	00000000 	andeq	r0, r0, r0
 8002840:	20335220 	eorscs	r5, r3, r0, lsr #4
 8002844:	2520203d 	strcs	r2, [r0, #-61]!	; 0x3d
 8002848:	0a583830 	beq	9610910 <_sidata+0x160ded8>
 800284c:	00000000 	andeq	r0, r0, r0
 8002850:	32315220 	eorscc	r5, r1, #32, 4
 8002854:	25203d20 	strcs	r3, [r0, #-3360]!	; 0xd20
 8002858:	0a583830 	beq	9610920 <_sidata+0x160dee8>
 800285c:	00000000 	andeq	r0, r0, r0
 8002860:	20524c20 	subscs	r4, r2, r0, lsr #24
 8002864:	2520203d 	strcs	r2, [r0, #-61]!	; 0x3d
 8002868:	0a583830 	beq	9610930 <_sidata+0x160def8>
 800286c:	00000000 	andeq	r0, r0, r0
 8002870:	20435020 	subcs	r5, r3, r0, lsr #32
 8002874:	2520203d 	strcs	r2, [r0, #-61]!	; 0x3d
 8002878:	0a583830 	beq	9610940 <_sidata+0x160df08>
 800287c:	00000000 	andeq	r0, r0, r0
 8002880:	52535020 	subspl	r5, r3, #32
 8002884:	25203d20 	strcs	r3, [r0, #-3360]!	; 0xd20
 8002888:	0a583830 	beq	9610950 <_sidata+0x160df18>
 800288c:	00000000 	andeq	r0, r0, r0
 8002890:	2f525346 	svccs	0x00525346
 8002894:	3a524146 	bcc	9492db4 <_sidata+0x149037c>
 8002898:	0000000a 	andeq	r0, r0, sl
 800289c:	53464320 	movtpl	r4, #25376	; 0x6320
 80028a0:	203d2052 	eorscs	r2, sp, r2, asr r0
 80028a4:	38302520 	ldmdacc	r0!, {r5, r8, sl, sp}
 80028a8:	00000a58 	andeq	r0, r0, r8, asr sl
 80028ac:	53464820 	movtpl	r4, #26656	; 0x6820
 80028b0:	203d2052 	eorscs	r2, sp, r2, asr r0
 80028b4:	38302520 	ldmdacc	r0!, {r5, r8, sl, sp}
 80028b8:	00000a58 	andeq	r0, r0, r8, asr sl
 80028bc:	53464420 	movtpl	r4, #25632	; 0x6420
 80028c0:	203d2052 	eorscs	r2, sp, r2, asr r0
 80028c4:	38302520 	ldmdacc	r0!, {r5, r8, sl, sp}
 80028c8:	00000a58 	andeq	r0, r0, r8, asr sl
 80028cc:	53464120 	movtpl	r4, #24864	; 0x6120
 80028d0:	203d2052 	eorscs	r2, sp, r2, asr r0
 80028d4:	38302520 	ldmdacc	r0!, {r5, r8, sl, sp}
 80028d8:	00000a58 	andeq	r0, r0, r8, asr sl
 80028dc:	464d4d20 	strbmi	r4, [sp], -r0, lsr #26
 80028e0:	3d205241 	sfmcc	f5, 4, [r0, #-260]!	; 0xfffffefc
 80028e4:	38302520 	ldmdacc	r0!, {r5, r8, sl, sp}
 80028e8:	00000a58 	andeq	r0, r0, r8, asr sl
 80028ec:	41464220 	cmpmi	r6, r0, lsr #4
 80028f0:	203d2052 	eorscs	r2, sp, r2, asr r0
 80028f4:	38302520 	ldmdacc	r0!, {r5, r8, sl, sp}
 80028f8:	00000a58 	andeq	r0, r0, r8, asr sl
 80028fc:	6373694d 	cmnvs	r3, #1261568	; 0x134000
 8002900:	0000000a 	andeq	r0, r0, sl
 8002904:	2f524c20 	svccs	0x00524c20
 8002908:	5f435845 	svcpl	0x00435845
 800290c:	55544552 	ldrbpl	r4, [r4, #-1362]	; 0x552
 8002910:	203d4e52 	eorscs	r4, sp, r2, asr lr
 8002914:	58383025 	ldmdapl	r8!, {r0, r2, r5, ip, sp}
 8002918:	0000000a 	andeq	r0, r0, sl
 800291c:	7261485b 	rsbvc	r4, r1, #5963776	; 0x5b0000
 8002920:	75614664 	strbvc	r4, [r1, #-1636]!	; 0x664
 8002924:	0a5d746c 	beq	975fadc <_sidata+0x175d0a4>
 8002928:	00000000 	andeq	r0, r0, r0
 800292c:	7375425b 	cmnvc	r5, #-1342177275	; 0xb0000005
 8002930:	6c756146 	ldfvse	f6, [r5], #-280	; 0xfffffee8
 8002934:	000a5d74 	andeq	r5, sl, r4, ror sp
 8002938:	6173555b 	cmnvs	r3, fp, asr r5
 800293c:	61466567 	cmpvs	r6, r7, ror #10
 8002940:	5d746c75 	ldclpl	12, cr6, [r4, #-468]!	; 0xfffffe2c
 8002944:	0000000a 	andeq	r0, r0, sl

08002948 <AHBPrescTable>:
	...
 8002950:	04030201 	streq	r0, [r3], #-513	; 0x201
 8002954:	09080706 	stmdbeq	r8, {r1, r2, r8, r9, sl}
 8002958:	6e6f7257 	mcrvs	2, 3, r7, cr15, cr7, {2}
 800295c:	61702067 	cmnvs	r0, r7, rrx
 8002960:	656d6172 	strbvs	r6, [sp, #-370]!	; 0x172
 8002964:	73726574 	cmnvc	r2, #116, 10	; 0x1d000000
 8002968:	6c617620 	stclvs	6, cr7, [r1], #-128	; 0xffffff80
 800296c:	203a6575 	eorscs	r6, sl, r5, ror r5
 8002970:	656c6966 	strbvs	r6, [ip, #-2406]!	; 0x966
 8002974:	20732520 	rsbscs	r2, r3, r0, lsr #10
 8002978:	6c206e6f 	stcvs	14, cr6, [r0], #-444	; 0xfffffe44
 800297c:	20656e69 	rsbcs	r6, r5, r9, ror #28
 8002980:	0a0d6425 	beq	835ba1c <_sidata+0x358fe4>
 8002984:	302d2300 	eorcc	r2, sp, r0, lsl #6
 8002988:	6800202b 	stmdavs	r0, {r0, r1, r3, r5, sp}
 800298c:	65004c6c 	strvs	r4, [r0, #-3180]	; 0xc6c
 8002990:	46456766 	strbmi	r6, [r5], -r6, ror #14
 8002994:	31300047 	teqcc	r0, r7, asr #32
 8002998:	35343332 	ldrcc	r3, [r4, #-818]!	; 0x332
 800299c:	39383736 	ldmdbcc	r8!, {r1, r2, r4, r5, r8, r9, sl, ip, sp}
 80029a0:	44434241 	strbmi	r4, [r3], #-577	; 0x241
 80029a4:	30004645 	andcc	r4, r0, r5, asr #12
 80029a8:	34333231 	ldrtcc	r3, [r3], #-561	; 0x231
 80029ac:	38373635 	ldmdacc	r7!, {r0, r2, r4, r5, r9, sl, ip, sp}
 80029b0:	63626139 	cmnvs	r2, #1073741838	; 0x4000000e
 80029b4:	00666564 	rsbeq	r6, r6, r4, ror #10
 80029b8:	00000010 	andeq	r0, r0, r0, lsl r0
 80029bc:	00000000 	andeq	r0, r0, r0
 80029c0:	00527a01 	subseq	r7, r2, r1, lsl #20
 80029c4:	010e7c02 	tsteq	lr, r2, lsl #24
 80029c8:	000d0c1b 	andeq	r0, sp, fp, lsl ip
 80029cc:	00000010 	andeq	r0, r0, r0, lsl r0
 80029d0:	00000018 	andeq	r0, r0, r8, lsl r0
 80029d4:	00000000 	andeq	r0, r0, r0
 80029d8:	00000010 	andeq	r0, r0, r0, lsl r0
 80029dc:	00000000 	andeq	r0, r0, r0
 80029e0:	00000010 	andeq	r0, r0, r0, lsl r0
 80029e4:	00000000 	andeq	r0, r0, r0
 80029e8:	00527a01 	subseq	r7, r2, r1, lsl #20
 80029ec:	010e7c02 	tsteq	lr, r2, lsl #24
 80029f0:	000d0c1b 	andeq	r0, sp, fp, lsl ip
 80029f4:	00000038 	andeq	r0, r0, r8, lsr r0
 80029f8:	00000018 	andeq	r0, r0, r8, lsl r0
 80029fc:	fffffa64 			; <UNDEFINED> instruction: 0xfffffa64
 8002a00:	0000009e 	muleq	r0, lr, r0
 8002a04:	100e5100 	andne	r5, lr, r0, lsl #2
 8002a08:	03850484 	orreq	r0, r5, #132, 8	; 0x84000000
 8002a0c:	01870286 	orreq	r0, r7, r6, lsl #5
 8002a10:	c5c6c75b 	strbgt	ip, [r6, #1883]	; 0x75b
 8002a14:	4c000ec4 	stcmi	14, cr0, [r0], {196}	; 0xc4
 8002a18:	0a0b420a 	beq	82d3248 <_sidata+0x2d0810>
 8002a1c:	100e0b42 	andne	r0, lr, r2, asr #22
 8002a20:	03850484 	orreq	r0, r5, #132, 8	; 0x84000000
 8002a24:	01870286 	orreq	r0, r7, r6, lsl #5
 8002a28:	c5c6c751 	strbgt	ip, [r6, #1873]	; 0x751
 8002a2c:	00000ec4 	andeq	r0, r0, r4, asr #29

Disassembly of section ._check_stack:

20000154 <._check_stack>:
	...
